ARM GAS  C:\Users\Ala\AppData\Local\Temp\cc9KrHUj.s 			page 1


   1              		.syntax unified
   2              		.cpu cortex-m0
   3              		.fpu softvfp
   4              		.eabi_attribute 20, 1
   5              		.eabi_attribute 21, 1
   6              		.eabi_attribute 23, 3
   7              		.eabi_attribute 24, 1
   8              		.eabi_attribute 25, 1
   9              		.eabi_attribute 26, 1
  10              		.eabi_attribute 30, 6
  11              		.eabi_attribute 34, 0
  12              		.eabi_attribute 18, 4
  13              		.thumb
  14              		.syntax unified
  15              		.file	"display.c"
  16              		.text
  17              	.Ltext0:
  18              		.cfi_sections	.debug_frame
  19              		.comm	RxBuffer,28,4
  20              		.comm	TxBuffer,3,4
  21              		.comm	dummyRxBuffer,28,4
  22              		.comm	dummyTxBuffer,3,4
  23              		.section	.rodata
  24              		.align	2
  25              	.LC0:
  26 0000 20202000 		.ascii	"   \000"
  27              		.align	2
  28              	.LC3:
  29 0004 504C4159 		.ascii	"PLAYER \000"
  29      45522000 
  30              		.align	2
  31              	.LC5:
  32 000c 69524144 		.ascii	"iRADIO \000"
  32      494F2000 
  33              		.align	2
  34              	.LC7:
  35 0014 44414220 		.ascii	"DAB \000"
  35      00
  36 0019 000000   		.align	2
  37              	.LC9:
  38 001c 41555849 		.ascii	"AUXIN \000"
  38      4E2000
  39 0023 00       		.align	2
  40              	.LC11:
  41 0024 434C4F43 		.ascii	"CLOCK \000"
  41      4B2000
  42 002b 00       		.align	2
  43              	.LC13:
  44 002c 5244532F 		.ascii	"RDS/FM \000"
  44      464D2000 
  45              		.align	2
  46              	.LC15:
  47 0034 42545F52 		.ascii	"BT_RX \000"
  47      582000
  48 003b 00       		.align	2
  49              	.LC17:
  50 003c 4354524C 		.ascii	"CTRL1=0x80 \000"
ARM GAS  C:\Users\Ala\AppData\Local\Temp\cc9KrHUj.s 			page 2


  50      313D3078 
  50      38302000 
  51              		.align	2
  52              	.LC19:
  53 0048 42545F54 		.ascii	"BT_TX \000"
  53      582000
  54 004f 00       		.align	2
  55              	.LC21:
  56 0050 4F4E4C49 		.ascii	"ONLINE \000"
  56      4E452000 
  57              		.align	2
  58              	.LC23:
  59 0058 5349474C 		.ascii	"SIGLEVEL \000"
  59      4556454C 
  59      2000
  60 0062 0000     		.align	2
  61              	.LC25:
  62 0064 53504543 		.ascii	"SPECANALYZER \000"
  62      414E414C 
  62      595A4552 
  62      2000
  63 0072 0000     		.align	2
  64              	.LC27:
  65 0074 434C4F43 		.ascii	"CLOCK 1 \000"
  65      4B203120 
  65      00
  66 007d 000000   		.align	2
  67              	.LC29:
  68 0080 434C4F43 		.ascii	"CLOCK 2\000"
  68      4B203200 
  69              		.align	2
  70              	.LC31:
  71 0088 4354524C 		.ascii	"CTRL2=0x40 \000"
  71      323D3078 
  71      34302000 
  72              		.align	2
  73              	.LC33:
  74 0094 4354524C 		.ascii	"CTRL2=0x80 \000"
  74      323D3078 
  74      38302000 
  75              		.align	2
  76              	.LC35:
  77 00a0 0D0A00   		.ascii	"\015\012\000"
  78              		.section	.text.SPI_message_reader,"ax",%progbits
  79              		.align	2
  80              		.global	SPI_message_reader
  81              		.code	16
  82              		.thumb_func
  83              		.type	SPI_message_reader, %function
  84              	SPI_message_reader:
  85              	.LFB32:
  86              		.file 1 "display.c"
   1:display.c     **** /* ========================================
   2:display.c     ****  *
   3:display.c     ****  * Copyright HEMI, 2020
   4:display.c     ****  * All Rights Reserved
   5:display.c     ****  * UNPUBLISHED, LICENSED SOFTWARE.
ARM GAS  C:\Users\Ala\AppData\Local\Temp\cc9KrHUj.s 			page 3


   6:display.c     ****  * 
   7:display.c     ****  * Functions used by BeoModern main PSoC to display informaiton on BeoModern
   8:display.c     ****  * front display as well as front LEDs
   9:display.c     ****  *
  10:display.c     ****  * CONFIDENTIAL AND PROPRIETARY INFORMATION
  11:display.c     ****  * WHICH IS THE PROPERTY OF HEMI.
  12:display.c     ****  *
  13:display.c     ****  * ========================================
  14:display.c     **** */
  15:display.c     **** 
  16:display.c     **** #include <display.h>
  17:display.c     **** 
  18:display.c     **** /*******************************************************************************
  19:display.c     **** * Function Name: SPI_message_reader
  20:display.c     **** ********************************************************************************
  21:display.c     **** * Summary:
  22:display.c     **** *  Funciton reponsible for decoding and displayin commands that were sent over 
  23:display.c     **** *  SPI interface to display. It intercepts 24 ASCI characters and pushes them to 
  24:display.c     **** *  display. It also interprets two control words and manipulates LEDs acordingly
  25:display.c     **** *  to control words state.
  26:display.c     **** *
  27:display.c     **** * Parameters:
  28:display.c     **** *  input_table[] - table returned by SPI slave routine contining 24 ASCI
  29:display.c     **** *                  characters and 2 control words for LED ON/OFF states
  30:display.c     **** *  disp_ctrl1 - Each bit represents LED on front interface
  31:display.c     **** *               LED control
  32:display.c     **** *               CTRL0.0 - Player
  33:display.c     **** *               CTRL0.1 - iRadio
  34:display.c     **** *               CTRL0.2 - DAB Radio
  35:display.c     **** *               CTRL0.3 - Aux IN
  36:display.c     **** *               CTRL0.4 - Clock    
  37:display.c     **** *               CTRL0.5 - RDS/FM Display
  38:display.c     **** *               CTRL0.6 - BT Rx    
  39:display.c     **** *               CTRL0.7 - NOT USED
  40:display.c     ****                 only one LED can be ON at particualr moment in time
  41:display.c     **** *  disp_ctrl2 - Each bit represents LED on front interface
  42:display.c     **** *               LED control
  43:display.c     **** *               CTRL1.0 - BT Tx
  44:display.c     **** *               CTRL1.1 - Online status
  45:display.c     **** *               CTRL1.2 - Signal Level
  46:display.c     **** *               CTRL1.3 - Spectrum Analyser
  47:display.c     **** *               CTRL1.4 - Clock 1
  48:display.c     **** *               CTRL1.5 - Clock 2
  49:display.c     **** *               CTRL1.6 - NOT USED
  50:display.c     **** *               CTRL1.7 - NOT USED
  51:display.c     **** *               more than one LED can be ON at particualr moment in time
  52:display.c     **** * Return:
  53:display.c     **** *  Returns display status
  54:display.c     **** *  0 - power down
  55:display.c     **** *  1 - operational
  56:display.c     **** *  2 - ...
  57:display.c     **** *
  58:display.c     **** *******************************************************************************/
  59:display.c     **** uint8 SPI_message_reader(uint8 input_table[])
  60:display.c     **** {
  87              		.loc 1 60 0
  88              		.cfi_startproc
ARM GAS  C:\Users\Ala\AppData\Local\Temp\cc9KrHUj.s 			page 4


  89              		@ args = 0, pretend = 0, frame = 16
  90              		@ frame_needed = 1, uses_anonymous_args = 0
  91 0000 80B5     		push	{r7, lr}
  92              		.cfi_def_cfa_offset 8
  93              		.cfi_offset 7, -8
  94              		.cfi_offset 14, -4
  95 0002 84B0     		sub	sp, sp, #16
  96              		.cfi_def_cfa_offset 24
  97 0004 00AF     		add	r7, sp, #0
  98              		.cfi_def_cfa_register 7
  99 0006 7860     		str	r0, [r7, #4]
  61:display.c     ****     uint8 counter;
  62:display.c     **** // scan thru incoming table and print information to display    
  63:display.c     ****     for (counter = 0; counter <RxPACKET_SIZE-4 ; counter++)
 100              		.loc 1 63 0
 101 0008 0F23     		movs	r3, #15
 102 000a FB18     		adds	r3, r7, r3
 103 000c 0022     		movs	r2, #0
 104 000e 1A70     		strb	r2, [r3]
 105 0010 0FE0     		b	.L2
 106              	.L3:
  64:display.c     ****     {
  65:display.c     **** // REPLACE WITH LED DISPLAY        
  66:display.c     ****         UART_UartPutChar(input_table[counter]);
 107              		.loc 1 66 0 discriminator 3
 108 0012 0F23     		movs	r3, #15
 109 0014 FB18     		adds	r3, r7, r3
 110 0016 1B78     		ldrb	r3, [r3]
 111 0018 7A68     		ldr	r2, [r7, #4]
 112 001a D318     		adds	r3, r2, r3
 113 001c 1B78     		ldrb	r3, [r3]
 114 001e 1800     		movs	r0, r3
 115 0020 FFF7FEFF 		bl	UART_SpiUartWriteTxData
  63:display.c     ****     {
 116              		.loc 1 63 0 discriminator 3
 117 0024 0F23     		movs	r3, #15
 118 0026 FB18     		adds	r3, r7, r3
 119 0028 1A78     		ldrb	r2, [r3]
 120 002a 0F23     		movs	r3, #15
 121 002c FB18     		adds	r3, r7, r3
 122 002e 0132     		adds	r2, r2, #1
 123 0030 1A70     		strb	r2, [r3]
 124              	.L2:
  63:display.c     ****     {
 125              		.loc 1 63 0 is_stmt 0 discriminator 1
 126 0032 0F23     		movs	r3, #15
 127 0034 FB18     		adds	r3, r7, r3
 128 0036 1B78     		ldrb	r3, [r3]
 129 0038 172B     		cmp	r3, #23
 130 003a EAD9     		bls	.L3
  67:display.c     **** // REPLACE WITH LED DISPLAY        
  68:display.c     ****     }
  69:display.c     ****     
  70:display.c     **** // TO BE REMOVED WHEN IN DISPLAY    
  71:display.c     ****     UART_UartPutString("   ");
 131              		.loc 1 71 0 is_stmt 1
 132 003c 554B     		ldr	r3, .L21
ARM GAS  C:\Users\Ala\AppData\Local\Temp\cc9KrHUj.s 			page 5


 133 003e 1800     		movs	r0, r3
 134 0040 FFF7FEFF 		bl	UART_UartPutString
  72:display.c     **** // TO BE REMOVED WHEN IN DISPLAY
  73:display.c     **** 
  74:display.c     **** // scan thru two control words and display LED information    
  75:display.c     **** // REPLACE WITH LEDs in DISPLAY MODULE
  76:display.c     ****     if ( ((RxBuffer[RxPACKET_CTRL1_POS-1]) & 0x01) == 0x01)
 135              		.loc 1 76 0
 136 0044 544B     		ldr	r3, .L21+4
 137 0046 1B7E     		ldrb	r3, [r3, #24]
 138 0048 1A00     		movs	r2, r3
 139 004a 0123     		movs	r3, #1
 140 004c 1340     		ands	r3, r2
 141 004e 03D0     		beq	.L4
  77:display.c     ****     {
  78:display.c     ****         UART_UartPutString("PLAYER ");
 142              		.loc 1 78 0
 143 0050 524B     		ldr	r3, .L21+8
 144 0052 1800     		movs	r0, r3
 145 0054 FFF7FEFF 		bl	UART_UartPutString
 146              	.L4:
  79:display.c     ****     }
  80:display.c     ****     if ( ((RxBuffer[RxPACKET_CTRL1_POS-1]) & 0x02) == 0x02)
 147              		.loc 1 80 0
 148 0058 4F4B     		ldr	r3, .L21+4
 149 005a 1B7E     		ldrb	r3, [r3, #24]
 150 005c 1A00     		movs	r2, r3
 151 005e 0223     		movs	r3, #2
 152 0060 1340     		ands	r3, r2
 153 0062 03D0     		beq	.L5
  81:display.c     ****     {
  82:display.c     ****         UART_UartPutString("iRADIO ");
 154              		.loc 1 82 0
 155 0064 4E4B     		ldr	r3, .L21+12
 156 0066 1800     		movs	r0, r3
 157 0068 FFF7FEFF 		bl	UART_UartPutString
 158              	.L5:
  83:display.c     ****     }
  84:display.c     ****     if ( ((RxBuffer[RxPACKET_CTRL1_POS-1]) & 0x04) == 0x04)
 159              		.loc 1 84 0
 160 006c 4A4B     		ldr	r3, .L21+4
 161 006e 1B7E     		ldrb	r3, [r3, #24]
 162 0070 1A00     		movs	r2, r3
 163 0072 0423     		movs	r3, #4
 164 0074 1340     		ands	r3, r2
 165 0076 03D0     		beq	.L6
  85:display.c     ****     {
  86:display.c     ****         UART_UartPutString("DAB ");
 166              		.loc 1 86 0
 167 0078 4A4B     		ldr	r3, .L21+16
 168 007a 1800     		movs	r0, r3
 169 007c FFF7FEFF 		bl	UART_UartPutString
 170              	.L6:
  87:display.c     ****     }
  88:display.c     ****     if ( ((RxBuffer[RxPACKET_CTRL1_POS-1]) & 0x08) == 0x08)
 171              		.loc 1 88 0
 172 0080 454B     		ldr	r3, .L21+4
ARM GAS  C:\Users\Ala\AppData\Local\Temp\cc9KrHUj.s 			page 6


 173 0082 1B7E     		ldrb	r3, [r3, #24]
 174 0084 1A00     		movs	r2, r3
 175 0086 0823     		movs	r3, #8
 176 0088 1340     		ands	r3, r2
 177 008a 03D0     		beq	.L7
  89:display.c     ****     {
  90:display.c     ****         UART_UartPutString("AUXIN ");
 178              		.loc 1 90 0
 179 008c 464B     		ldr	r3, .L21+20
 180 008e 1800     		movs	r0, r3
 181 0090 FFF7FEFF 		bl	UART_UartPutString
 182              	.L7:
  91:display.c     ****     }
  92:display.c     ****     if ( ((RxBuffer[RxPACKET_CTRL1_POS-1]) & 0x10) == 0x10)
 183              		.loc 1 92 0
 184 0094 404B     		ldr	r3, .L21+4
 185 0096 1B7E     		ldrb	r3, [r3, #24]
 186 0098 1A00     		movs	r2, r3
 187 009a 1023     		movs	r3, #16
 188 009c 1340     		ands	r3, r2
 189 009e 03D0     		beq	.L8
  93:display.c     ****     {
  94:display.c     ****         UART_UartPutString("CLOCK ");
 190              		.loc 1 94 0
 191 00a0 424B     		ldr	r3, .L21+24
 192 00a2 1800     		movs	r0, r3
 193 00a4 FFF7FEFF 		bl	UART_UartPutString
 194              	.L8:
  95:display.c     ****     }
  96:display.c     ****     if ( ((RxBuffer[RxPACKET_CTRL1_POS-1]) & 0x20) == 0x20)
 195              		.loc 1 96 0
 196 00a8 3B4B     		ldr	r3, .L21+4
 197 00aa 1B7E     		ldrb	r3, [r3, #24]
 198 00ac 1A00     		movs	r2, r3
 199 00ae 2023     		movs	r3, #32
 200 00b0 1340     		ands	r3, r2
 201 00b2 03D0     		beq	.L9
  97:display.c     ****     {
  98:display.c     ****         UART_UartPutString("RDS/FM ");
 202              		.loc 1 98 0
 203 00b4 3E4B     		ldr	r3, .L21+28
 204 00b6 1800     		movs	r0, r3
 205 00b8 FFF7FEFF 		bl	UART_UartPutString
 206              	.L9:
  99:display.c     ****     }
 100:display.c     ****     if ( ((RxBuffer[RxPACKET_CTRL1_POS-1]) & 0x40) == 0x40)
 207              		.loc 1 100 0
 208 00bc 364B     		ldr	r3, .L21+4
 209 00be 1B7E     		ldrb	r3, [r3, #24]
 210 00c0 1A00     		movs	r2, r3
 211 00c2 4023     		movs	r3, #64
 212 00c4 1340     		ands	r3, r2
 213 00c6 03D0     		beq	.L10
 101:display.c     ****     {
 102:display.c     ****         UART_UartPutString("BT_RX ");
 214              		.loc 1 102 0
 215 00c8 3A4B     		ldr	r3, .L21+32
ARM GAS  C:\Users\Ala\AppData\Local\Temp\cc9KrHUj.s 			page 7


 216 00ca 1800     		movs	r0, r3
 217 00cc FFF7FEFF 		bl	UART_UartPutString
 218              	.L10:
 103:display.c     ****     }
 104:display.c     ****     if ( ((RxBuffer[RxPACKET_CTRL1_POS-1]) & 0x80) == 0x80)
 219              		.loc 1 104 0
 220 00d0 314B     		ldr	r3, .L21+4
 221 00d2 1B7E     		ldrb	r3, [r3, #24]
 222 00d4 5BB2     		sxtb	r3, r3
 223 00d6 002B     		cmp	r3, #0
 224 00d8 03DA     		bge	.L11
 105:display.c     ****     {
 106:display.c     ****         UART_UartPutString("CTRL1=0x80 ");
 225              		.loc 1 106 0
 226 00da 374B     		ldr	r3, .L21+36
 227 00dc 1800     		movs	r0, r3
 228 00de FFF7FEFF 		bl	UART_UartPutString
 229              	.L11:
 107:display.c     ****     }            
 108:display.c     ****     
 109:display.c     ****     if ( ((RxBuffer[RxPACKET_CTRL2_POS-1]) & 0x01) == 0x01)
 230              		.loc 1 109 0
 231 00e2 2D4B     		ldr	r3, .L21+4
 232 00e4 5B7E     		ldrb	r3, [r3, #25]
 233 00e6 1A00     		movs	r2, r3
 234 00e8 0123     		movs	r3, #1
 235 00ea 1340     		ands	r3, r2
 236 00ec 03D0     		beq	.L12
 110:display.c     ****     {
 111:display.c     ****         UART_UartPutString("BT_TX ");
 237              		.loc 1 111 0
 238 00ee 334B     		ldr	r3, .L21+40
 239 00f0 1800     		movs	r0, r3
 240 00f2 FFF7FEFF 		bl	UART_UartPutString
 241              	.L12:
 112:display.c     ****     }
 113:display.c     ****     if ( ((RxBuffer[RxPACKET_CTRL2_POS-1]) & 0x02) == 0x02)
 242              		.loc 1 113 0
 243 00f6 284B     		ldr	r3, .L21+4
 244 00f8 5B7E     		ldrb	r3, [r3, #25]
 245 00fa 1A00     		movs	r2, r3
 246 00fc 0223     		movs	r3, #2
 247 00fe 1340     		ands	r3, r2
 248 0100 03D0     		beq	.L13
 114:display.c     ****     {
 115:display.c     ****         UART_UartPutString("ONLINE ");
 249              		.loc 1 115 0
 250 0102 2F4B     		ldr	r3, .L21+44
 251 0104 1800     		movs	r0, r3
 252 0106 FFF7FEFF 		bl	UART_UartPutString
 253              	.L13:
 116:display.c     ****     }
 117:display.c     ****     if ( ((RxBuffer[RxPACKET_CTRL2_POS-1]) & 0x04) == 0x04)
 254              		.loc 1 117 0
 255 010a 234B     		ldr	r3, .L21+4
 256 010c 5B7E     		ldrb	r3, [r3, #25]
 257 010e 1A00     		movs	r2, r3
ARM GAS  C:\Users\Ala\AppData\Local\Temp\cc9KrHUj.s 			page 8


 258 0110 0423     		movs	r3, #4
 259 0112 1340     		ands	r3, r2
 260 0114 03D0     		beq	.L14
 118:display.c     ****     {
 119:display.c     ****         UART_UartPutString("SIGLEVEL ");
 261              		.loc 1 119 0
 262 0116 2B4B     		ldr	r3, .L21+48
 263 0118 1800     		movs	r0, r3
 264 011a FFF7FEFF 		bl	UART_UartPutString
 265              	.L14:
 120:display.c     ****     }
 121:display.c     ****     if ( ((RxBuffer[RxPACKET_CTRL2_POS-1]) & 0x08) == 0x08)
 266              		.loc 1 121 0
 267 011e 1E4B     		ldr	r3, .L21+4
 268 0120 5B7E     		ldrb	r3, [r3, #25]
 269 0122 1A00     		movs	r2, r3
 270 0124 0823     		movs	r3, #8
 271 0126 1340     		ands	r3, r2
 272 0128 03D0     		beq	.L15
 122:display.c     ****     {
 123:display.c     ****         UART_UartPutString("SPECANALYZER ");
 273              		.loc 1 123 0
 274 012a 274B     		ldr	r3, .L21+52
 275 012c 1800     		movs	r0, r3
 276 012e FFF7FEFF 		bl	UART_UartPutString
 277              	.L15:
 124:display.c     ****     }
 125:display.c     ****     if ( ((RxBuffer[RxPACKET_CTRL2_POS-1]) & 0x10) == 0x10)
 278              		.loc 1 125 0
 279 0132 194B     		ldr	r3, .L21+4
 280 0134 5B7E     		ldrb	r3, [r3, #25]
 281 0136 1A00     		movs	r2, r3
 282 0138 1023     		movs	r3, #16
 283 013a 1340     		ands	r3, r2
 284 013c 03D0     		beq	.L16
 126:display.c     ****     {
 127:display.c     ****         UART_UartPutString("CLOCK 1 ");
 285              		.loc 1 127 0
 286 013e 234B     		ldr	r3, .L21+56
 287 0140 1800     		movs	r0, r3
 288 0142 FFF7FEFF 		bl	UART_UartPutString
 289              	.L16:
 128:display.c     ****     }
 129:display.c     ****     if ( ((RxBuffer[RxPACKET_CTRL2_POS-1]) & 0x20) == 0x20)
 290              		.loc 1 129 0
 291 0146 144B     		ldr	r3, .L21+4
 292 0148 5B7E     		ldrb	r3, [r3, #25]
 293 014a 1A00     		movs	r2, r3
 294 014c 2023     		movs	r3, #32
 295 014e 1340     		ands	r3, r2
 296 0150 03D0     		beq	.L17
 130:display.c     ****     {
 131:display.c     ****         UART_UartPutString("CLOCK 2");
 297              		.loc 1 131 0
 298 0152 1F4B     		ldr	r3, .L21+60
 299 0154 1800     		movs	r0, r3
 300 0156 FFF7FEFF 		bl	UART_UartPutString
ARM GAS  C:\Users\Ala\AppData\Local\Temp\cc9KrHUj.s 			page 9


 301              	.L17:
 132:display.c     ****     }
 133:display.c     ****     if ( ((RxBuffer[RxPACKET_CTRL2_POS-1]) & 0x40) == 0x40)
 302              		.loc 1 133 0
 303 015a 0F4B     		ldr	r3, .L21+4
 304 015c 5B7E     		ldrb	r3, [r3, #25]
 305 015e 1A00     		movs	r2, r3
 306 0160 4023     		movs	r3, #64
 307 0162 1340     		ands	r3, r2
 308 0164 03D0     		beq	.L18
 134:display.c     ****     {
 135:display.c     ****         UART_UartPutString("CTRL2=0x40 ");
 309              		.loc 1 135 0
 310 0166 1B4B     		ldr	r3, .L21+64
 311 0168 1800     		movs	r0, r3
 312 016a FFF7FEFF 		bl	UART_UartPutString
 313              	.L18:
 136:display.c     ****     }
 137:display.c     ****     if ( ((RxBuffer[RxPACKET_CTRL2_POS-1]) & 0x80) == 0x80)
 314              		.loc 1 137 0
 315 016e 0A4B     		ldr	r3, .L21+4
 316 0170 5B7E     		ldrb	r3, [r3, #25]
 317 0172 5BB2     		sxtb	r3, r3
 318 0174 002B     		cmp	r3, #0
 319 0176 03DA     		bge	.L19
 138:display.c     ****     {
 139:display.c     ****         UART_UartPutString("CTRL2=0x80 ");
 320              		.loc 1 139 0
 321 0178 174B     		ldr	r3, .L21+68
 322 017a 1800     		movs	r0, r3
 323 017c FFF7FEFF 		bl	UART_UartPutString
 324              	.L19:
 140:display.c     ****     }
 141:display.c     **** // REPLACE WITH LEDs in DISPLAY MODULE
 142:display.c     **** 
 143:display.c     **** // TO BE REMOVED WHEN IN DISPLAY    
 144:display.c     ****     UART_UartPutString("\r\n");
 325              		.loc 1 144 0
 326 0180 164B     		ldr	r3, .L21+72
 327 0182 1800     		movs	r0, r3
 328 0184 FFF7FEFF 		bl	UART_UartPutString
 145:display.c     **** // TO BE REMOVED WHEN IN DISPLAY
 146:display.c     ****     
 147:display.c     **** // ENACHANCE WITH MORE INFO LATER ON    
 148:display.c     ****     return 1;
 329              		.loc 1 148 0
 330 0188 0123     		movs	r3, #1
 149:display.c     **** }
 331              		.loc 1 149 0
 332 018a 1800     		movs	r0, r3
 333 018c BD46     		mov	sp, r7
 334 018e 04B0     		add	sp, sp, #16
 335              		@ sp needed
 336 0190 80BD     		pop	{r7, pc}
 337              	.L22:
 338 0192 C046     		.align	2
 339              	.L21:
ARM GAS  C:\Users\Ala\AppData\Local\Temp\cc9KrHUj.s 			page 10


 340 0194 00000000 		.word	.LC0
 341 0198 00000000 		.word	RxBuffer
 342 019c 04000000 		.word	.LC3
 343 01a0 0C000000 		.word	.LC5
 344 01a4 14000000 		.word	.LC7
 345 01a8 1C000000 		.word	.LC9
 346 01ac 24000000 		.word	.LC11
 347 01b0 2C000000 		.word	.LC13
 348 01b4 34000000 		.word	.LC15
 349 01b8 3C000000 		.word	.LC17
 350 01bc 48000000 		.word	.LC19
 351 01c0 50000000 		.word	.LC21
 352 01c4 58000000 		.word	.LC23
 353 01c8 64000000 		.word	.LC25
 354 01cc 74000000 		.word	.LC27
 355 01d0 80000000 		.word	.LC29
 356 01d4 88000000 		.word	.LC31
 357 01d8 94000000 		.word	.LC33
 358 01dc A0000000 		.word	.LC35
 359              		.cfi_endproc
 360              	.LFE32:
 361              		.size	SPI_message_reader, .-SPI_message_reader
 362              		.text
 363              	.Letext0:
 364              		.file 2 "Generated_Source\\PSoC4/cytypes.h"
 365              		.file 3 "./operate.h"
 366              		.section	.debug_info,"",%progbits
 367              	.Ldebug_info0:
 368 0000 72010000 		.4byte	0x172
 369 0004 0400     		.2byte	0x4
 370 0006 00000000 		.4byte	.Ldebug_abbrev0
 371 000a 04       		.byte	0x4
 372 000b 01       		.uleb128 0x1
 373 000c 35010000 		.4byte	.LASF20
 374 0010 0C       		.byte	0xc
 375 0011 22000000 		.4byte	.LASF21
 376 0015 4B000000 		.4byte	.LASF22
 377 0019 00000000 		.4byte	.Ldebug_ranges0+0
 378 001d 00000000 		.4byte	0
 379 0021 00000000 		.4byte	.Ldebug_line0
 380 0025 02       		.uleb128 0x2
 381 0026 01       		.byte	0x1
 382 0027 06       		.byte	0x6
 383 0028 05010000 		.4byte	.LASF0
 384 002c 02       		.uleb128 0x2
 385 002d 01       		.byte	0x1
 386 002e 08       		.byte	0x8
 387 002f BE000000 		.4byte	.LASF1
 388 0033 02       		.uleb128 0x2
 389 0034 02       		.byte	0x2
 390 0035 05       		.byte	0x5
 391 0036 2B010000 		.4byte	.LASF2
 392 003a 02       		.uleb128 0x2
 393 003b 02       		.byte	0x2
 394 003c 07       		.byte	0x7
 395 003d F2000000 		.4byte	.LASF3
 396 0041 02       		.uleb128 0x2
ARM GAS  C:\Users\Ala\AppData\Local\Temp\cc9KrHUj.s 			page 11


 397 0042 04       		.byte	0x4
 398 0043 05       		.byte	0x5
 399 0044 D1000000 		.4byte	.LASF4
 400 0048 02       		.uleb128 0x2
 401 0049 04       		.byte	0x4
 402 004a 07       		.byte	0x7
 403 004b 81000000 		.4byte	.LASF5
 404 004f 02       		.uleb128 0x2
 405 0050 08       		.byte	0x8
 406 0051 05       		.byte	0x5
 407 0052 00000000 		.4byte	.LASF6
 408 0056 02       		.uleb128 0x2
 409 0057 08       		.byte	0x8
 410 0058 07       		.byte	0x7
 411 0059 93000000 		.4byte	.LASF7
 412 005d 03       		.uleb128 0x3
 413 005e 04       		.byte	0x4
 414 005f 05       		.byte	0x5
 415 0060 696E7400 		.ascii	"int\000"
 416 0064 02       		.uleb128 0x2
 417 0065 04       		.byte	0x4
 418 0066 07       		.byte	0x7
 419 0067 15000000 		.4byte	.LASF8
 420 006b 04       		.uleb128 0x4
 421 006c 7B000000 		.4byte	.LASF9
 422 0070 02       		.byte	0x2
 423 0071 F701     		.2byte	0x1f7
 424 0073 2C000000 		.4byte	0x2c
 425 0077 04       		.uleb128 0x4
 426 0078 0E000000 		.4byte	.LASF10
 427 007c 02       		.byte	0x2
 428 007d F901     		.2byte	0x1f9
 429 007f 48000000 		.4byte	0x48
 430 0083 02       		.uleb128 0x2
 431 0084 04       		.byte	0x4
 432 0085 04       		.byte	0x4
 433 0086 B8000000 		.4byte	.LASF11
 434 008a 02       		.uleb128 0x2
 435 008b 08       		.byte	0x8
 436 008c 04       		.byte	0x4
 437 008d E3000000 		.4byte	.LASF12
 438 0091 02       		.uleb128 0x2
 439 0092 01       		.byte	0x1
 440 0093 08       		.byte	0x8
 441 0094 CC000000 		.4byte	.LASF13
 442 0098 02       		.uleb128 0x2
 443 0099 08       		.byte	0x8
 444 009a 04       		.byte	0x4
 445 009b 1F010000 		.4byte	.LASF14
 446 009f 02       		.uleb128 0x2
 447 00a0 04       		.byte	0x4
 448 00a1 07       		.byte	0x7
 449 00a2 CC010000 		.4byte	.LASF15
 450 00a6 05       		.uleb128 0x5
 451 00a7 04       		.byte	0x4
 452 00a8 6B000000 		.4byte	0x6b
 453 00ac 06       		.uleb128 0x6
ARM GAS  C:\Users\Ala\AppData\Local\Temp\cc9KrHUj.s 			page 12


 454 00ad 2C000000 		.4byte	.LASF23
 455 00b1 01       		.byte	0x1
 456 00b2 3B       		.byte	0x3b
 457 00b3 6B000000 		.4byte	0x6b
 458 00b7 00000000 		.4byte	.LFB32
 459 00bb E0010000 		.4byte	.LFE32-.LFB32
 460 00bf 01       		.uleb128 0x1
 461 00c0 9C       		.byte	0x9c
 462 00c1 E2000000 		.4byte	0xe2
 463 00c5 07       		.uleb128 0x7
 464 00c6 3F000000 		.4byte	.LASF24
 465 00ca 01       		.byte	0x1
 466 00cb 3B       		.byte	0x3b
 467 00cc A6000000 		.4byte	0xa6
 468 00d0 02       		.uleb128 0x2
 469 00d1 91       		.byte	0x91
 470 00d2 6C       		.sleb128 -20
 471 00d3 08       		.uleb128 0x8
 472 00d4 EA000000 		.4byte	.LASF25
 473 00d8 01       		.byte	0x1
 474 00d9 3D       		.byte	0x3d
 475 00da 6B000000 		.4byte	0x6b
 476 00de 02       		.uleb128 0x2
 477 00df 91       		.byte	0x91
 478 00e0 77       		.sleb128 -9
 479 00e1 00       		.byte	0
 480 00e2 09       		.uleb128 0x9
 481 00e3 6B000000 		.4byte	0x6b
 482 00e7 F2000000 		.4byte	0xf2
 483 00eb 0A       		.uleb128 0xa
 484 00ec 9F000000 		.4byte	0x9f
 485 00f0 1B       		.byte	0x1b
 486 00f1 00       		.byte	0
 487 00f2 0B       		.uleb128 0xb
 488 00f3 DA000000 		.4byte	.LASF16
 489 00f7 03       		.byte	0x3
 490 00f8 2D       		.byte	0x2d
 491 00f9 E2000000 		.4byte	0xe2
 492 00fd 05       		.uleb128 0x5
 493 00fe 03       		.byte	0x3
 494 00ff 00000000 		.4byte	RxBuffer
 495 0103 09       		.uleb128 0x9
 496 0104 6B000000 		.4byte	0x6b
 497 0108 13010000 		.4byte	0x113
 498 010c 0A       		.uleb128 0xa
 499 010d 9F000000 		.4byte	0x9f
 500 0111 02       		.byte	0x2
 501 0112 00       		.byte	0
 502 0113 0B       		.uleb128 0xb
 503 0114 C3010000 		.4byte	.LASF17
 504 0118 03       		.byte	0x3
 505 0119 2E       		.byte	0x2e
 506 011a 03010000 		.4byte	0x103
 507 011e 05       		.uleb128 0x5
 508 011f 03       		.byte	0x3
 509 0120 00000000 		.4byte	TxBuffer
 510 0124 09       		.uleb128 0x9
ARM GAS  C:\Users\Ala\AppData\Local\Temp\cc9KrHUj.s 			page 13


 511 0125 34010000 		.4byte	0x134
 512 0129 34010000 		.4byte	0x134
 513 012d 0A       		.uleb128 0xa
 514 012e 9F000000 		.4byte	0x9f
 515 0132 1B       		.byte	0x1b
 516 0133 00       		.byte	0
 517 0134 0C       		.uleb128 0xc
 518 0135 6B000000 		.4byte	0x6b
 519 0139 0B       		.uleb128 0xb
 520 013a 11010000 		.4byte	.LASF18
 521 013e 03       		.byte	0x3
 522 013f 31       		.byte	0x31
 523 0140 4A010000 		.4byte	0x14a
 524 0144 05       		.uleb128 0x5
 525 0145 03       		.byte	0x3
 526 0146 00000000 		.4byte	dummyRxBuffer
 527 014a 0C       		.uleb128 0xc
 528 014b 24010000 		.4byte	0x124
 529 014f 09       		.uleb128 0x9
 530 0150 34010000 		.4byte	0x134
 531 0154 5F010000 		.4byte	0x15f
 532 0158 0A       		.uleb128 0xa
 533 0159 9F000000 		.4byte	0x9f
 534 015d 02       		.byte	0x2
 535 015e 00       		.byte	0
 536 015f 0B       		.uleb128 0xb
 537 0160 AA000000 		.4byte	.LASF19
 538 0164 03       		.byte	0x3
 539 0165 33       		.byte	0x33
 540 0166 70010000 		.4byte	0x170
 541 016a 05       		.uleb128 0x5
 542 016b 03       		.byte	0x3
 543 016c 00000000 		.4byte	dummyTxBuffer
 544 0170 0C       		.uleb128 0xc
 545 0171 4F010000 		.4byte	0x14f
 546 0175 00       		.byte	0
 547              		.section	.debug_abbrev,"",%progbits
 548              	.Ldebug_abbrev0:
 549 0000 01       		.uleb128 0x1
 550 0001 11       		.uleb128 0x11
 551 0002 01       		.byte	0x1
 552 0003 25       		.uleb128 0x25
 553 0004 0E       		.uleb128 0xe
 554 0005 13       		.uleb128 0x13
 555 0006 0B       		.uleb128 0xb
 556 0007 03       		.uleb128 0x3
 557 0008 0E       		.uleb128 0xe
 558 0009 1B       		.uleb128 0x1b
 559 000a 0E       		.uleb128 0xe
 560 000b 55       		.uleb128 0x55
 561 000c 17       		.uleb128 0x17
 562 000d 11       		.uleb128 0x11
 563 000e 01       		.uleb128 0x1
 564 000f 10       		.uleb128 0x10
 565 0010 17       		.uleb128 0x17
 566 0011 00       		.byte	0
 567 0012 00       		.byte	0
ARM GAS  C:\Users\Ala\AppData\Local\Temp\cc9KrHUj.s 			page 14


 568 0013 02       		.uleb128 0x2
 569 0014 24       		.uleb128 0x24
 570 0015 00       		.byte	0
 571 0016 0B       		.uleb128 0xb
 572 0017 0B       		.uleb128 0xb
 573 0018 3E       		.uleb128 0x3e
 574 0019 0B       		.uleb128 0xb
 575 001a 03       		.uleb128 0x3
 576 001b 0E       		.uleb128 0xe
 577 001c 00       		.byte	0
 578 001d 00       		.byte	0
 579 001e 03       		.uleb128 0x3
 580 001f 24       		.uleb128 0x24
 581 0020 00       		.byte	0
 582 0021 0B       		.uleb128 0xb
 583 0022 0B       		.uleb128 0xb
 584 0023 3E       		.uleb128 0x3e
 585 0024 0B       		.uleb128 0xb
 586 0025 03       		.uleb128 0x3
 587 0026 08       		.uleb128 0x8
 588 0027 00       		.byte	0
 589 0028 00       		.byte	0
 590 0029 04       		.uleb128 0x4
 591 002a 16       		.uleb128 0x16
 592 002b 00       		.byte	0
 593 002c 03       		.uleb128 0x3
 594 002d 0E       		.uleb128 0xe
 595 002e 3A       		.uleb128 0x3a
 596 002f 0B       		.uleb128 0xb
 597 0030 3B       		.uleb128 0x3b
 598 0031 05       		.uleb128 0x5
 599 0032 49       		.uleb128 0x49
 600 0033 13       		.uleb128 0x13
 601 0034 00       		.byte	0
 602 0035 00       		.byte	0
 603 0036 05       		.uleb128 0x5
 604 0037 0F       		.uleb128 0xf
 605 0038 00       		.byte	0
 606 0039 0B       		.uleb128 0xb
 607 003a 0B       		.uleb128 0xb
 608 003b 49       		.uleb128 0x49
 609 003c 13       		.uleb128 0x13
 610 003d 00       		.byte	0
 611 003e 00       		.byte	0
 612 003f 06       		.uleb128 0x6
 613 0040 2E       		.uleb128 0x2e
 614 0041 01       		.byte	0x1
 615 0042 3F       		.uleb128 0x3f
 616 0043 19       		.uleb128 0x19
 617 0044 03       		.uleb128 0x3
 618 0045 0E       		.uleb128 0xe
 619 0046 3A       		.uleb128 0x3a
 620 0047 0B       		.uleb128 0xb
 621 0048 3B       		.uleb128 0x3b
 622 0049 0B       		.uleb128 0xb
 623 004a 27       		.uleb128 0x27
 624 004b 19       		.uleb128 0x19
ARM GAS  C:\Users\Ala\AppData\Local\Temp\cc9KrHUj.s 			page 15


 625 004c 49       		.uleb128 0x49
 626 004d 13       		.uleb128 0x13
 627 004e 11       		.uleb128 0x11
 628 004f 01       		.uleb128 0x1
 629 0050 12       		.uleb128 0x12
 630 0051 06       		.uleb128 0x6
 631 0052 40       		.uleb128 0x40
 632 0053 18       		.uleb128 0x18
 633 0054 9642     		.uleb128 0x2116
 634 0056 19       		.uleb128 0x19
 635 0057 01       		.uleb128 0x1
 636 0058 13       		.uleb128 0x13
 637 0059 00       		.byte	0
 638 005a 00       		.byte	0
 639 005b 07       		.uleb128 0x7
 640 005c 05       		.uleb128 0x5
 641 005d 00       		.byte	0
 642 005e 03       		.uleb128 0x3
 643 005f 0E       		.uleb128 0xe
 644 0060 3A       		.uleb128 0x3a
 645 0061 0B       		.uleb128 0xb
 646 0062 3B       		.uleb128 0x3b
 647 0063 0B       		.uleb128 0xb
 648 0064 49       		.uleb128 0x49
 649 0065 13       		.uleb128 0x13
 650 0066 02       		.uleb128 0x2
 651 0067 18       		.uleb128 0x18
 652 0068 00       		.byte	0
 653 0069 00       		.byte	0
 654 006a 08       		.uleb128 0x8
 655 006b 34       		.uleb128 0x34
 656 006c 00       		.byte	0
 657 006d 03       		.uleb128 0x3
 658 006e 0E       		.uleb128 0xe
 659 006f 3A       		.uleb128 0x3a
 660 0070 0B       		.uleb128 0xb
 661 0071 3B       		.uleb128 0x3b
 662 0072 0B       		.uleb128 0xb
 663 0073 49       		.uleb128 0x49
 664 0074 13       		.uleb128 0x13
 665 0075 02       		.uleb128 0x2
 666 0076 18       		.uleb128 0x18
 667 0077 00       		.byte	0
 668 0078 00       		.byte	0
 669 0079 09       		.uleb128 0x9
 670 007a 01       		.uleb128 0x1
 671 007b 01       		.byte	0x1
 672 007c 49       		.uleb128 0x49
 673 007d 13       		.uleb128 0x13
 674 007e 01       		.uleb128 0x1
 675 007f 13       		.uleb128 0x13
 676 0080 00       		.byte	0
 677 0081 00       		.byte	0
 678 0082 0A       		.uleb128 0xa
 679 0083 21       		.uleb128 0x21
 680 0084 00       		.byte	0
 681 0085 49       		.uleb128 0x49
ARM GAS  C:\Users\Ala\AppData\Local\Temp\cc9KrHUj.s 			page 16


 682 0086 13       		.uleb128 0x13
 683 0087 2F       		.uleb128 0x2f
 684 0088 0B       		.uleb128 0xb
 685 0089 00       		.byte	0
 686 008a 00       		.byte	0
 687 008b 0B       		.uleb128 0xb
 688 008c 34       		.uleb128 0x34
 689 008d 00       		.byte	0
 690 008e 03       		.uleb128 0x3
 691 008f 0E       		.uleb128 0xe
 692 0090 3A       		.uleb128 0x3a
 693 0091 0B       		.uleb128 0xb
 694 0092 3B       		.uleb128 0x3b
 695 0093 0B       		.uleb128 0xb
 696 0094 49       		.uleb128 0x49
 697 0095 13       		.uleb128 0x13
 698 0096 3F       		.uleb128 0x3f
 699 0097 19       		.uleb128 0x19
 700 0098 02       		.uleb128 0x2
 701 0099 18       		.uleb128 0x18
 702 009a 00       		.byte	0
 703 009b 00       		.byte	0
 704 009c 0C       		.uleb128 0xc
 705 009d 26       		.uleb128 0x26
 706 009e 00       		.byte	0
 707 009f 49       		.uleb128 0x49
 708 00a0 13       		.uleb128 0x13
 709 00a1 00       		.byte	0
 710 00a2 00       		.byte	0
 711 00a3 00       		.byte	0
 712              		.section	.debug_aranges,"",%progbits
 713 0000 1C000000 		.4byte	0x1c
 714 0004 0200     		.2byte	0x2
 715 0006 00000000 		.4byte	.Ldebug_info0
 716 000a 04       		.byte	0x4
 717 000b 00       		.byte	0
 718 000c 0000     		.2byte	0
 719 000e 0000     		.2byte	0
 720 0010 00000000 		.4byte	.LFB32
 721 0014 E0010000 		.4byte	.LFE32-.LFB32
 722 0018 00000000 		.4byte	0
 723 001c 00000000 		.4byte	0
 724              		.section	.debug_ranges,"",%progbits
 725              	.Ldebug_ranges0:
 726 0000 00000000 		.4byte	.LFB32
 727 0004 E0010000 		.4byte	.LFE32
 728 0008 00000000 		.4byte	0
 729 000c 00000000 		.4byte	0
 730              		.section	.debug_line,"",%progbits
 731              	.Ldebug_line0:
 732 0000 9E000000 		.section	.debug_str,"MS",%progbits,1
 732      02005300 
 732      00000201 
 732      FB0E0D00 
 732      01010101 
 733              	.LASF6:
 734 0000 6C6F6E67 		.ascii	"long long int\000"
ARM GAS  C:\Users\Ala\AppData\Local\Temp\cc9KrHUj.s 			page 17


 734      206C6F6E 
 734      6720696E 
 734      7400
 735              	.LASF10:
 736 000e 75696E74 		.ascii	"uint32\000"
 736      333200
 737              	.LASF8:
 738 0015 756E7369 		.ascii	"unsigned int\000"
 738      676E6564 
 738      20696E74 
 738      00
 739              	.LASF21:
 740 0022 64697370 		.ascii	"display.c\000"
 740      6C61792E 
 740      6300
 741              	.LASF23:
 742 002c 5350495F 		.ascii	"SPI_message_reader\000"
 742      6D657373 
 742      6167655F 
 742      72656164 
 742      657200
 743              	.LASF24:
 744 003f 696E7075 		.ascii	"input_table\000"
 744      745F7461 
 744      626C6500 
 745              	.LASF22:
 746 004b 433A5C55 		.ascii	"C:\\Users\\Ala\\Desktop\\Cypress\\BeoM_display.cyds"
 746      73657273 
 746      5C416C61 
 746      5C446573 
 746      6B746F70 
 747 0079 6E00     		.ascii	"n\000"
 748              	.LASF9:
 749 007b 75696E74 		.ascii	"uint8\000"
 749      3800
 750              	.LASF5:
 751 0081 6C6F6E67 		.ascii	"long unsigned int\000"
 751      20756E73 
 751      69676E65 
 751      6420696E 
 751      7400
 752              	.LASF7:
 753 0093 6C6F6E67 		.ascii	"long long unsigned int\000"
 753      206C6F6E 
 753      6720756E 
 753      7369676E 
 753      65642069 
 754              	.LASF19:
 755 00aa 64756D6D 		.ascii	"dummyTxBuffer\000"
 755      79547842 
 755      75666665 
 755      7200
 756              	.LASF11:
 757 00b8 666C6F61 		.ascii	"float\000"
 757      7400
 758              	.LASF1:
 759 00be 756E7369 		.ascii	"unsigned char\000"
ARM GAS  C:\Users\Ala\AppData\Local\Temp\cc9KrHUj.s 			page 18


 759      676E6564 
 759      20636861 
 759      7200
 760              	.LASF13:
 761 00cc 63686172 		.ascii	"char\000"
 761      00
 762              	.LASF4:
 763 00d1 6C6F6E67 		.ascii	"long int\000"
 763      20696E74 
 763      00
 764              	.LASF16:
 765 00da 52784275 		.ascii	"RxBuffer\000"
 765      66666572 
 765      00
 766              	.LASF12:
 767 00e3 646F7562 		.ascii	"double\000"
 767      6C6500
 768              	.LASF25:
 769 00ea 636F756E 		.ascii	"counter\000"
 769      74657200 
 770              	.LASF3:
 771 00f2 73686F72 		.ascii	"short unsigned int\000"
 771      7420756E 
 771      7369676E 
 771      65642069 
 771      6E7400
 772              	.LASF0:
 773 0105 7369676E 		.ascii	"signed char\000"
 773      65642063 
 773      68617200 
 774              	.LASF18:
 775 0111 64756D6D 		.ascii	"dummyRxBuffer\000"
 775      79527842 
 775      75666665 
 775      7200
 776              	.LASF14:
 777 011f 6C6F6E67 		.ascii	"long double\000"
 777      20646F75 
 777      626C6500 
 778              	.LASF2:
 779 012b 73686F72 		.ascii	"short int\000"
 779      7420696E 
 779      7400
 780              	.LASF20:
 781 0135 474E5520 		.ascii	"GNU C11 5.4.1 20160609 (release) [ARM/embedded-5-br"
 781      43313120 
 781      352E342E 
 781      31203230 
 781      31363036 
 782 0168 616E6368 		.ascii	"anch revision 237715] -mcpu=cortex-m0 -mthumb -g -O"
 782      20726576 
 782      6973696F 
 782      6E203233 
 782      37373135 
 783 019b 30202D66 		.ascii	"0 -ffunction-sections -ffat-lto-objects\000"
 783      66756E63 
 783      74696F6E 
ARM GAS  C:\Users\Ala\AppData\Local\Temp\cc9KrHUj.s 			page 19


 783      2D736563 
 783      74696F6E 
 784              	.LASF17:
 785 01c3 54784275 		.ascii	"TxBuffer\000"
 785      66666572 
 785      00
 786              	.LASF15:
 787 01cc 73697A65 		.ascii	"sizetype\000"
 787      74797065 
 787      00
 788              		.ident	"GCC: (GNU Tools for ARM Embedded Processors) 5.4.1 20160609 (release) [ARM/embedded-5-bran
