ARM GAS  C:\Users\Ala\AppData\Local\Temp\cc9KrHUj.s 			page 1


   1              		.syntax unified
   2              		.cpu cortex-m0
   3              		.fpu softvfp
   4              		.eabi_attribute 20, 1
   5              		.eabi_attribute 21, 1
   6              		.eabi_attribute 23, 3
   7              		.eabi_attribute 24, 1
   8              		.eabi_attribute 25, 1
   9              		.eabi_attribute 26, 1
  10              		.eabi_attribute 30, 6
  11              		.eabi_attribute 34, 0
  12              		.eabi_attribute 18, 4
  13              		.thumb
  14              		.syntax unified
  15              		.file	"display.c"
  16              		.text
  17              	.Ltext0:
  18              		.cfi_sections	.debug_frame
  19              		.comm	RxBuffer,28,4
  20              		.comm	TxBuffer,3,4
  21              		.comm	dummyRxBuffer,28,4
  22              		.comm	dummyTxBuffer,3,4
  23              		.section	.rodata
  24              		.align	2
  25              	.LC0:
  26 0000 20202000 		.ascii	"   \000"
  27              		.align	2
  28              	.LC3:
  29 0004 504C4159 		.ascii	"PLAYER \000"
  29      45522000 
  30              		.align	2
  31              	.LC5:
  32 000c 69524144 		.ascii	"iRADIO \000"
  32      494F2000 
  33              		.align	2
  34              	.LC7:
  35 0014 44414220 		.ascii	"DAB \000"
  35      00
  36 0019 000000   		.align	2
  37              	.LC9:
  38 001c 41555849 		.ascii	"AUXIN \000"
  38      4E2000
  39 0023 00       		.align	2
  40              	.LC11:
  41 0024 434C4F43 		.ascii	"CLOCK \000"
  41      4B2000
  42 002b 00       		.align	2
  43              	.LC13:
  44 002c 5244532F 		.ascii	"RDS/FM \000"
  44      464D2000 
  45              		.align	2
  46              	.LC15:
  47 0034 42545F52 		.ascii	"BT_RX \000"
  47      582000
  48 003b 00       		.align	2
  49              	.LC17:
  50 003c 4354524C 		.ascii	"CTRL1=0x80 \000"
ARM GAS  C:\Users\Ala\AppData\Local\Temp\cc9KrHUj.s 			page 2


  50      313D3078 
  50      38302000 
  51              		.align	2
  52              	.LC19:
  53 0048 42545F54 		.ascii	"BT_TX \000"
  53      582000
  54 004f 00       		.align	2
  55              	.LC21:
  56 0050 4F4E4C49 		.ascii	"ONLINE \000"
  56      4E452000 
  57              		.align	2
  58              	.LC23:
  59 0058 5349474C 		.ascii	"SIGLEVEL \000"
  59      4556454C 
  59      2000
  60 0062 0000     		.align	2
  61              	.LC25:
  62 0064 53504543 		.ascii	"SPECANALYZER \000"
  62      414E414C 
  62      595A4552 
  62      2000
  63 0072 0000     		.align	2
  64              	.LC27:
  65 0074 434C4F43 		.ascii	"CLOCK 1 \000"
  65      4B203120 
  65      00
  66 007d 000000   		.align	2
  67              	.LC29:
  68 0080 434C4F43 		.ascii	"CLOCK 2\000"
  68      4B203200 
  69              		.align	2
  70              	.LC31:
  71 0088 4354524C 		.ascii	"CTRL2=0x40 \000"
  71      323D3078 
  71      34302000 
  72              		.align	2
  73              	.LC33:
  74 0094 4354524C 		.ascii	"CTRL2=0x80 \000"
  74      323D3078 
  74      38302000 
  75              		.align	2
  76              	.LC35:
  77 00a0 0D0A00   		.ascii	"\015\012\000"
  78              		.section	.text.SPI_message_reader,"ax",%progbits
  79              		.align	2
  80              		.global	SPI_message_reader
  81              		.code	16
  82              		.thumb_func
  83              		.type	SPI_message_reader, %function
  84              	SPI_message_reader:
  85              	.LFB32:
  86              		.file 1 "display.c"
   1:display.c     **** /* ========================================
   2:display.c     ****  *
   3:display.c     ****  * Copyright HEMI, 2020
   4:display.c     ****  * All Rights Reserved
   5:display.c     ****  * UNPUBLISHED, LICENSED SOFTWARE.
ARM GAS  C:\Users\Ala\AppData\Local\Temp\cc9KrHUj.s 			page 3


   6:display.c     ****  * 
   7:display.c     ****  * Functions used by BeoModern main PSoC to display informaiton on BeoModern
   8:display.c     ****  * front display as well as front LEDs
   9:display.c     ****  *
  10:display.c     ****  * CONFIDENTIAL AND PROPRIETARY INFORMATION
  11:display.c     ****  * WHICH IS THE PROPERTY OF HEMI.
  12:display.c     ****  *
  13:display.c     ****  * ========================================
  14:display.c     **** */
  15:display.c     **** 
  16:display.c     **** #include <display.h>
  17:display.c     **** 
  18:display.c     **** /*******************************************************************************
  19:display.c     **** * Function Name: SPI_message_reader
  20:display.c     **** ********************************************************************************
  21:display.c     **** * Summary:
  22:display.c     **** *  Funciton reponsible for decoding and displayin commands that were sent over 
  23:display.c     **** *  SPI interface to display. It intercepts 24 ASCI characters and pushes them to 
  24:display.c     **** *  display. It also interprets two control words and manipulates LEDs acordingly
  25:display.c     **** *  to control words state.
  26:display.c     **** *
  27:display.c     **** * Parameters:
  28:display.c     **** *  input_table[] - table returned by SPI slave routine contining 24 ASCI
  29:display.c     **** *                  characters and 2 control words for LED ON/OFF states
  30:display.c     **** *  disp_ctrl1 - Each bit represents LED on front interface
  31:display.c     **** *               LED control
  32:display.c     **** *               CTRL0.0 - Player
  33:display.c     **** *               CTRL0.1 - iRadio
  34:display.c     **** *               CTRL0.2 - DAB Radio
  35:display.c     **** *               CTRL0.3 - Aux IN
  36:display.c     **** *               CTRL0.4 - Clock    
  37:display.c     **** *               CTRL0.5 - RDS/FM Display
  38:display.c     **** *               CTRL0.6 - BT Rx    
  39:display.c     **** *               CTRL0.7 - NOT USED
  40:display.c     ****                 only one LED can be ON at particualr moment in time
  41:display.c     **** *  disp_ctrl2 - Each bit represents LED on front interface
  42:display.c     **** *               LED control
  43:display.c     **** *               CTRL1.0 - BT Tx
  44:display.c     **** *               CTRL1.1 - Online status
  45:display.c     **** *               CTRL1.2 - Signal Level
  46:display.c     **** *               CTRL1.3 - Spectrum Analyser
  47:display.c     **** *               CTRL1.4 - Clock 1
  48:display.c     **** *               CTRL1.5 - Clock 2
  49:display.c     **** *               CTRL1.6 - NOT USED
  50:display.c     **** *               CTRL1.7 - NOT USED
  51:display.c     **** *               more than one LED can be ON at particualr moment in time
  52:display.c     **** * Return:
  53:display.c     **** *  Returns display status
  54:display.c     **** *  0 - power down
  55:display.c     **** *  1 - operational
  56:display.c     **** *  2 - ...
  57:display.c     **** *
  58:display.c     **** *******************************************************************************/
  59:display.c     **** uint8 SPI_message_reader(uint8 input_table[])
  60:display.c     **** {
  87              		.loc 1 60 0
  88              		.cfi_startproc
ARM GAS  C:\Users\Ala\AppData\Local\Temp\cc9KrHUj.s 			page 4


  89              		@ args = 0, pretend = 0, frame = 16
  90              		@ frame_needed = 1, uses_anonymous_args = 0
  91 0000 80B5     		push	{r7, lr}
  92              		.cfi_def_cfa_offset 8
  93              		.cfi_offset 7, -8
  94              		.cfi_offset 14, -4
  95 0002 84B0     		sub	sp, sp, #16
  96              		.cfi_def_cfa_offset 24
  97 0004 00AF     		add	r7, sp, #0
  98              		.cfi_def_cfa_register 7
  99 0006 7860     		str	r0, [r7, #4]
  61:display.c     ****     uint8 counter;
  62:display.c     **** // scan thru incoming table and print information to display    
  63:display.c     ****     for (counter = 0; counter <RxPACKET_SIZE-4 ; counter++)
 100              		.loc 1 63 0
 101 0008 0F23     		movs	r3, #15
 102 000a FB18     		adds	r3, r7, r3
 103 000c 0022     		movs	r2, #0
 104 000e 1A70     		strb	r2, [r3]
 105 0010 0FE0     		b	.L2
 106              	.L3:
  64:display.c     ****     {
  65:display.c     **** // REPLACE WITH LED DISPLAY        
  66:display.c     ****         UART_UartPutChar(input_table[counter]);
 107              		.loc 1 66 0 discriminator 3
 108 0012 0F23     		movs	r3, #15
 109 0014 FB18     		adds	r3, r7, r3
 110 0016 1B78     		ldrb	r3, [r3]
 111 0018 7A68     		ldr	r2, [r7, #4]
 112 001a D318     		adds	r3, r2, r3
 113 001c 1B78     		ldrb	r3, [r3]
 114 001e 1800     		movs	r0, r3
 115 0020 FFF7FEFF 		bl	UART_SpiUartWriteTxData
  63:display.c     ****     {
 116              		.loc 1 63 0 discriminator 3
 117 0024 0F23     		movs	r3, #15
 118 0026 FB18     		adds	r3, r7, r3
 119 0028 1A78     		ldrb	r2, [r3]
 120 002a 0F23     		movs	r3, #15
 121 002c FB18     		adds	r3, r7, r3
 122 002e 0132     		adds	r2, r2, #1
 123 0030 1A70     		strb	r2, [r3]
 124              	.L2:
  63:display.c     ****     {
 125              		.loc 1 63 0 is_stmt 0 discriminator 1
 126 0032 0F23     		movs	r3, #15
 127 0034 FB18     		adds	r3, r7, r3
 128 0036 1B78     		ldrb	r3, [r3]
 129 0038 172B     		cmp	r3, #23
 130 003a EAD9     		bls	.L3
  67:display.c     **** // REPLACE WITH LED DISPLAY        
  68:display.c     ****     }
  69:display.c     ****     
  70:display.c     **** // TO BE REMOVED WHEN IN DISPLAY    
  71:display.c     ****     UART_UartPutString("   ");
 131              		.loc 1 71 0 is_stmt 1
 132 003c 554B     		ldr	r3, .L21
ARM GAS  C:\Users\Ala\AppData\Local\Temp\cc9KrHUj.s 			page 5


 133 003e 1800     		movs	r0, r3
 134 0040 FFF7FEFF 		bl	UART_UartPutString
  72:display.c     **** // TO BE REMOVED WHEN IN DISPLAY
  73:display.c     **** 
  74:display.c     **** // scan thru two control words and display LED information    
  75:display.c     **** // REPLACE WITH LEDs in DISPLAY MODULE
  76:display.c     ****     if ( ((RxBuffer[RxPACKET_CTRL1_POS-1]) & 0x01) == 0x01)
 135              		.loc 1 76 0
 136 0044 544B     		ldr	r3, .L21+4
 137 0046 1B7E     		ldrb	r3, [r3, #24]
 138 0048 1A00     		movs	r2, r3
 139 004a 0123     		movs	r3, #1
 140 004c 1340     		ands	r3, r2
 141 004e 03D0     		beq	.L4
  77:display.c     ****     {
  78:display.c     ****         UART_UartPutString("PLAYER ");
 142              		.loc 1 78 0
 143 0050 524B     		ldr	r3, .L21+8
 144 0052 1800     		movs	r0, r3
 145 0054 FFF7FEFF 		bl	UART_UartPutString
 146              	.L4:
  79:display.c     ****     }
  80:display.c     ****     if ( ((RxBuffer[RxPACKET_CTRL1_POS-1]) & 0x02) == 0x02)
 147              		.loc 1 80 0
 148 0058 4F4B     		ldr	r3, .L21+4
 149 005a 1B7E     		ldrb	r3, [r3, #24]
 150 005c 1A00     		movs	r2, r3
 151 005e 0223     		movs	r3, #2
 152 0060 1340     		ands	r3, r2
 153 0062 03D0     		beq	.L5
  81:display.c     ****     {
  82:display.c     ****         UART_UartPutString("iRADIO ");
 154              		.loc 1 82 0
 155 0064 4E4B     		ldr	r3, .L21+12
 156 0066 1800     		movs	r0, r3
 157 0068 FFF7FEFF 		bl	UART_UartPutString
 158              	.L5:
  83:display.c     ****     }
  84:display.c     ****     if ( ((RxBuffer[RxPACKET_CTRL1_POS-1]) & 0x04) == 0x04)
 159              		.loc 1 84 0
 160 006c 4A4B     		ldr	r3, .L21+4
 161 006e 1B7E     		ldrb	r3, [r3, #24]
 162 0070 1A00     		movs	r2, r3
 163 0072 0423     		movs	r3, #4
 164 0074 1340     		ands	r3, r2
 165 0076 03D0     		beq	.L6
  85:display.c     ****     {
  86:display.c     ****         UART_UartPutString("DAB ");
 166              		.loc 1 86 0
 167 0078 4A4B     		ldr	r3, .L21+16
 168 007a 1800     		movs	r0, r3
 169 007c FFF7FEFF 		bl	UART_UartPutString
 170              	.L6:
  87:display.c     ****     }
  88:display.c     ****     if ( ((RxBuffer[RxPACKET_CTRL1_POS-1]) & 0x08) == 0x08)
 171              		.loc 1 88 0
 172 0080 454B     		ldr	r3, .L21+4
ARM GAS  C:\Users\Ala\AppData\Local\Temp\cc9KrHUj.s 			page 6


 173 0082 1B7E     		ldrb	r3, [r3, #24]
 174 0084 1A00     		movs	r2, r3
 175 0086 0823     		movs	r3, #8
 176 0088 1340     		ands	r3, r2
 177 008a 03D0     		beq	.L7
  89:display.c     ****     {
  90:display.c     ****         UART_UartPutString("AUXIN ");
 178              		.loc 1 90 0
 179 008c 464B     		ldr	r3, .L21+20
 180 008e 1800     		movs	r0, r3
 181 0090 FFF7FEFF 		bl	UART_UartPutString
 182              	.L7:
  91:display.c     ****     }
  92:display.c     ****     if ( ((RxBuffer[RxPACKET_CTRL1_POS-1]) & 0x10) == 0x10)
 183              		.loc 1 92 0
 184 0094 404B     		ldr	r3, .L21+4
 185 0096 1B7E     		ldrb	r3, [r3, #24]
 186 0098 1A00     		movs	r2, r3
 187 009a 1023     		movs	r3, #16
 188 009c 1340     		ands	r3, r2
 189 009e 03D0     		beq	.L8
  93:display.c     ****     {
  94:display.c     ****         UART_UartPutString("CLOCK ");
 190              		.loc 1 94 0
 191 00a0 424B     		ldr	r3, .L21+24
 192 00a2 1800     		movs	r0, r3
 193 00a4 FFF7FEFF 		bl	UART_UartPutString
 194              	.L8:
  95:display.c     ****     }
  96:display.c     ****     if ( ((RxBuffer[RxPACKET_CTRL1_POS-1]) & 0x20) == 0x20)
 195              		.loc 1 96 0
 196 00a8 3B4B     		ldr	r3, .L21+4
 197 00aa 1B7E     		ldrb	r3, [r3, #24]
 198 00ac 1A00     		movs	r2, r3
 199 00ae 2023     		movs	r3, #32
 200 00b0 1340     		ands	r3, r2
 201 00b2 03D0     		beq	.L9
  97:display.c     ****     {
  98:display.c     ****         UART_UartPutString("RDS/FM ");
 202              		.loc 1 98 0
 203 00b4 3E4B     		ldr	r3, .L21+28
 204 00b6 1800     		movs	r0, r3
 205 00b8 FFF7FEFF 		bl	UART_UartPutString
 206              	.L9:
  99:display.c     ****     }
 100:display.c     ****     if ( ((RxBuffer[RxPACKET_CTRL1_POS-1]) & 0x40) == 0x40)
 207              		.loc 1 100 0
 208 00bc 364B     		ldr	r3, .L21+4
 209 00be 1B7E     		ldrb	r3, [r3, #24]
 210 00c0 1A00     		movs	r2, r3
 211 00c2 4023     		movs	r3, #64
 212 00c4 1340     		ands	r3, r2
 213 00c6 03D0     		beq	.L10
 101:display.c     ****     {
 102:display.c     ****         UART_UartPutString("BT_RX ");
 214              		.loc 1 102 0
 215 00c8 3A4B     		ldr	r3, .L21+32
ARM GAS  C:\Users\Ala\AppData\Local\Temp\cc9KrHUj.s 			page 7


 216 00ca 1800     		movs	r0, r3
 217 00cc FFF7FEFF 		bl	UART_UartPutString
 218              	.L10:
 103:display.c     ****     }
 104:display.c     ****     if ( ((RxBuffer[RxPACKET_CTRL1_POS-1]) & 0x80) == 0x80)
 219              		.loc 1 104 0
 220 00d0 314B     		ldr	r3, .L21+4
 221 00d2 1B7E     		ldrb	r3, [r3, #24]
 222 00d4 5BB2     		sxtb	r3, r3
 223 00d6 002B     		cmp	r3, #0
 224 00d8 03DA     		bge	.L11
 105:display.c     ****     {
 106:display.c     ****         UART_UartPutString("CTRL1=0x80 ");
 225              		.loc 1 106 0
 226 00da 374B     		ldr	r3, .L21+36
 227 00dc 1800     		movs	r0, r3
 228 00de FFF7FEFF 		bl	UART_UartPutString
 229              	.L11:
 107:display.c     ****     }            
 108:display.c     ****     
 109:display.c     ****     if ( ((RxBuffer[RxPACKET_CTRL2_POS-1]) & 0x01) == 0x01)
 230              		.loc 1 109 0
 231 00e2 2D4B     		ldr	r3, .L21+4
 232 00e4 5B7E     		ldrb	r3, [r3, #25]
 233 00e6 1A00     		movs	r2, r3
 234 00e8 0123     		movs	r3, #1
 235 00ea 1340     		ands	r3, r2
 236 00ec 03D0     		beq	.L12
 110:display.c     ****     {
 111:display.c     ****         UART_UartPutString("BT_TX ");
 237              		.loc 1 111 0
 238 00ee 334B     		ldr	r3, .L21+40
 239 00f0 1800     		movs	r0, r3
 240 00f2 FFF7FEFF 		bl	UART_UartPutString
 241              	.L12:
 112:display.c     ****     }
 113:display.c     ****     if ( ((RxBuffer[RxPACKET_CTRL2_POS-1]) & 0x02) == 0x02)
 242              		.loc 1 113 0
 243 00f6 284B     		ldr	r3, .L21+4
 244 00f8 5B7E     		ldrb	r3, [r3, #25]
 245 00fa 1A00     		movs	r2, r3
 246 00fc 0223     		movs	r3, #2
 247 00fe 1340     		ands	r3, r2
 248 0100 03D0     		beq	.L13
 114:display.c     ****     {
 115:display.c     ****         UART_UartPutString("ONLINE ");
 249              		.loc 1 115 0
 250 0102 2F4B     		ldr	r3, .L21+44
 251 0104 1800     		movs	r0, r3
 252 0106 FFF7FEFF 		bl	UART_UartPutString
 253              	.L13:
 116:display.c     ****     }
 117:display.c     ****     if ( ((RxBuffer[RxPACKET_CTRL2_POS-1]) & 0x04) == 0x04)
 254              		.loc 1 117 0
 255 010a 234B     		ldr	r3, .L21+4
 256 010c 5B7E     		ldrb	r3, [r3, #25]
 257 010e 1A00     		movs	r2, r3
ARM GAS  C:\Users\Ala\AppData\Local\Temp\cc9KrHUj.s 			page 8


 258 0110 0423     		movs	r3, #4
 259 0112 1340     		ands	r3, r2
 260 0114 03D0     		beq	.L14
 118:display.c     ****     {
 119:display.c     ****         UART_UartPutString("SIGLEVEL ");
 261              		.loc 1 119 0
 262 0116 2B4B     		ldr	r3, .L21+48
 263 0118 1800     		movs	r0, r3
 264 011a FFF7FEFF 		bl	UART_UartPutString
 265              	.L14:
 120:display.c     ****     }
 121:display.c     ****     if ( ((RxBuffer[RxPACKET_CTRL2_POS-1]) & 0x08) == 0x08)
 266              		.loc 1 121 0
 267 011e 1E4B     		ldr	r3, .L21+4
 268 0120 5B7E     		ldrb	r3, [r3, #25]
 269 0122 1A00     		movs	r2, r3
 270 0124 0823     		movs	r3, #8
 271 0126 1340     		ands	r3, r2
 272 0128 03D0     		beq	.L15
 122:display.c     ****     {
 123:display.c     ****         UART_UartPutString("SPECANALYZER ");
 273              		.loc 1 123 0
 274 012a 274B     		ldr	r3, .L21+52
 275 012c 1800     		movs	r0, r3
 276 012e FFF7FEFF 		bl	UART_UartPutString
 277              	.L15:
 124:display.c     ****     }
 125:display.c     ****     if ( ((RxBuffer[RxPACKET_CTRL2_POS-1]) & 0x10) == 0x10)
 278              		.loc 1 125 0
 279 0132 194B     		ldr	r3, .L21+4
 280 0134 5B7E     		ldrb	r3, [r3, #25]
 281 0136 1A00     		movs	r2, r3
 282 0138 1023     		movs	r3, #16
 283 013a 1340     		ands	r3, r2
 284 013c 03D0     		beq	.L16
 126:display.c     ****     {
 127:display.c     ****         UART_UartPutString("CLOCK 1 ");
 285              		.loc 1 127 0
 286 013e 234B     		ldr	r3, .L21+56
 287 0140 1800     		movs	r0, r3
 288 0142 FFF7FEFF 		bl	UART_UartPutString
 289              	.L16:
 128:display.c     ****     }
 129:display.c     ****     if ( ((RxBuffer[RxPACKET_CTRL2_POS-1]) & 0x20) == 0x20)
 290              		.loc 1 129 0
 291 0146 144B     		ldr	r3, .L21+4
 292 0148 5B7E     		ldrb	r3, [r3, #25]
 293 014a 1A00     		movs	r2, r3
 294 014c 2023     		movs	r3, #32
 295 014e 1340     		ands	r3, r2
 296 0150 03D0     		beq	.L17
 130:display.c     ****     {
 131:display.c     ****         UART_UartPutString("CLOCK 2");
 297              		.loc 1 131 0
 298 0152 1F4B     		ldr	r3, .L21+60
 299 0154 1800     		movs	r0, r3
 300 0156 FFF7FEFF 		bl	UART_UartPutString
ARM GAS  C:\Users\Ala\AppData\Local\Temp\cc9KrHUj.s 			page 9


 301              	.L17:
 132:display.c     ****     }
 133:display.c     ****     if ( ((RxBuffer[RxPACKET_CTRL2_POS-1]) & 0x40) == 0x40)
 302              		.loc 1 133 0
 303 015a 0F4B     		ldr	r3, .L21+4
 304 015c 5B7E     		ldrb	r3, [r3, #25]
 305 015e 1A00     		movs	r2, r3
 306 0160 4023     		movs	r3, #64
 307 0162 1340     		ands	r3, r2
 308 0164 03D0     		beq	.L18
 134:display.c     ****     {
 135:display.c     ****         UART_UartPutString("CTRL2=0x40 ");
 309              		.loc 1 135 0
 310 0166 1B4B     		ldr	r3, .L21+64
 311 0168 1800     		movs	r0, r3
 312 016a FFF7FEFF 		bl	UART_UartPutString
 313              	.L18:
 136:display.c     ****     }
 137:display.c     ****     if ( ((RxBuffer[RxPACKET_CTRL2_POS-1]) & 0x80) == 0x80)
 314              		.loc 1 137 0
 315 016e 0A4B     		ldr	r3, .L21+4
 316 0170 5B7E     		ldrb	r3, [r3, #25]
 317 0172 5BB2     		sxtb	r3, r3
 318 0174 002B     		cmp	r3, #0
 319 0176 03DA     		bge	.L19
 138:display.c     ****     {
 139:display.c     ****         UART_UartPutString("CTRL2=0x80 ");
 320              		.loc 1 139 0
 321 0178 174B     		ldr	r3, .L21+68
 322 017a 1800     		movs	r0, r3
 323 017c FFF7FEFF 		bl	UART_UartPutString
 324              	.L19:
 140:display.c     ****     }
 141:display.c     **** // REPLACE WITH LEDs in DISPLAY MODULE
 142:display.c     **** 
 143:display.c     **** // TO BE REMOVED WHEN IN DISPLAY    
 144:display.c     ****     UART_UartPutString("\r\n");
 325              		.loc 1 144 0
 326 0180 164B     		ldr	r3, .L21+72
 327 0182 1800     		movs	r0, r3
 328 0184 FFF7FEFF 		bl	UART_UartPutString
 145:display.c     **** // TO BE REMOVED WHEN IN DISPLAY
 146:display.c     ****     
 147:display.c     **** // ENACHANCE WITH MORE INFO LATER ON    
 148:display.c     ****     return 1;
 329              		.loc 1 148 0
 330 0188 0123     		movs	r3, #1
 149:display.c     **** }
 331              		.loc 1 149 0
 332 018a 1800     		movs	r0, r3
 333 018c BD46     		mov	sp, r7
 334 018e 04B0     		add	sp, sp, #16
 335              		@ sp needed
 336 0190 80BD     		pop	{r7, pc}
 337              	.L22:
 338 0192 C046     		.align	2
 339              	.L21:
ARM GAS  C:\Users\Ala\AppData\Local\Temp\cc9KrHUj.s 			page 10


 340 0194 00000000 		.word	.LC0
 341 0198 00000000 		.word	RxBuffer
 342 019c 04000000 		.word	.LC3
 343 01a0 0C000000 		.word	.LC5
 344 01a4 14000000 		.word	.LC7
 345 01a8 1C000000 		.word	.LC9
 346 01ac 24000000 		.word	.LC11
 347 01b0 2C000000 		.word	.LC13
 348 01b4 34000000 		.word	.LC15
 349 01b8 3C000000 		.word	.LC17
 350 01bc 48000000 		.word	.LC19
 351 01c0 50000000 		.word	.LC21
 352 01c4 58000000 		.word	.LC23
 353 01c8 64000000 		.word	.LC25
 354 01cc 74000000 		.word	.LC27
 355 01d0 80000000 		.word	.LC29
 356 01d4 88000000 		.word	.LC31
 357 01d8 94000000 		.word	.LC33
 358 01dc A0000000 		.word	.LC35
 359              		.cfi_endproc
 360              	.LFE32:
 361              		.size	SPI_message_reader, .-SPI_message_reader
 362              		.text
 363              	.Letext0:
 364              		.file 2 "Generated_Source\\PSoC4/cytypes.h"
 365              		.file 3 "./operate.h"