ARM GAS  C:\Users\Ala\AppData\Local\Temp\cctVcZRH.s 			page 1


   1              		.syntax unified
   2              		.cpu cortex-m0
   3              		.fpu softvfp
   4              		.eabi_attribute 20, 1
   5              		.eabi_attribute 21, 1
   6              		.eabi_attribute 23, 3
   7              		.eabi_attribute 24, 1
   8              		.eabi_attribute 25, 1
   9              		.eabi_attribute 26, 1
  10              		.eabi_attribute 30, 6
  11              		.eabi_attribute 34, 0
  12              		.eabi_attribute 18, 4
  13              		.thumb
  14              		.syntax unified
  15              		.file	"inputs.c"
  16              		.text
  17              	.Ltext0:
  18              		.cfi_sections	.debug_frame
  19              		.global	flag
  20              		.bss
  21              		.type	flag, %object
  22              		.size	flag, 1
  23              	flag:
  24 0000 00       		.space	1
  25              		.section	.text.DISPLAY_Timer_INTHandler,"ax",%progbits
  26              		.align	2
  27              		.global	DISPLAY_Timer_INTHandler
  28              		.code	16
  29              		.thumb_func
  30              		.type	DISPLAY_Timer_INTHandler, %function
  31              	DISPLAY_Timer_INTHandler:
  32              	.LFB32:
  33              		.file 1 "inputs.c"
   1:inputs.c      **** /* ========================================
   2:inputs.c      ****  *
   3:inputs.c      ****  * Copyright HEMI, 2020
   4:inputs.c      ****  * All Rights Reserved
   5:inputs.c      ****  * UNPUBLISHED, LICENSED SOFTWARE.
   6:inputs.c      ****  * 
   7:inputs.c      ****  * Functions used by BeoModern main PSoC to monitor input informaiton coming from
   8:inputs.c      ****  * push buttons and over DataLink interface
   9:inputs.c      ****  *
  10:inputs.c      ****  * CONFIDENTIAL AND PROPRIETARY INFORMATION
  11:inputs.c      ****  * WHICH IS THE PROPERTY OF HEMI.
  12:inputs.c      ****  *
  13:inputs.c      ****  * ========================================
  14:inputs.c      **** */
  15:inputs.c      **** 
  16:inputs.c      **** #include <inputs.h>
  17:inputs.c      **** 
  18:inputs.c      **** // Changes in the interrupt to signal that the transfer was complete 
  19:inputs.c      **** uint8 flag = 0;
  20:inputs.c      **** 
  21:inputs.c      **** /*******************************************************************************
  22:inputs.c      **** * Function Name: CY_ISR(DISPLAY_Timer_INTHandler)
  23:inputs.c      **** ********************************************************************************
  24:inputs.c      **** * Summary:
ARM GAS  C:\Users\Ala\AppData\Local\Temp\cctVcZRH.s 			page 2


  25:inputs.c      **** *  The Interrupt Service Routine. Triggered by software when timer expires after 
  26:inputs.c      **** *  DISPLAY_Timer_Start() is called. It uses timer to count 2 seconds wait.
  27:inputs.c      **** *  This time is used to display information that are temporary (like button press
  28:inputs.c      **** *  or BT status).
  29:inputs.c      **** *   
  30:inputs.c      **** * Parameters:
  31:inputs.c      **** *  Timer interrupt handler 
  32:inputs.c      **** *
  33:inputs.c      **** * Return:
  34:inputs.c      **** *  updates DISPLAY_UPDATE variable.when TC is called.
  35:inputs.c      **** *
  36:inputs.c      **** ********************************************************************************/
  37:inputs.c      **** CY_ISR(DISPLAY_Timer_INTHandler)
  38:inputs.c      **** {
  34              		.loc 1 38 0
  35              		.cfi_startproc
  36              		@ args = 0, pretend = 0, frame = 0
  37              		@ frame_needed = 1, uses_anonymous_args = 0
  38 0000 80B5     		push	{r7, lr}
  39              		.cfi_def_cfa_offset 8
  40              		.cfi_offset 7, -8
  41              		.cfi_offset 14, -4
  42 0002 00AF     		add	r7, sp, #0
  43              		.cfi_def_cfa_register 7
  39:inputs.c      **** // Check if interrupt came from Timer Counter expired (indicating timer count elapsed)
  40:inputs.c      ****     if (0u != (DISPLAY_Timer_ReadStatusRegister() & 0x01))
  44              		.loc 1 40 0
  45 0004 FFF7FEFF 		bl	DISPLAY_Timer_ReadStatusRegister
  46 0008 0300     		movs	r3, r0
  47 000a 1A00     		movs	r2, r3
  48 000c 0123     		movs	r3, #1
  49 000e 1340     		ands	r3, r2
  50 0010 01D0     		beq	.L3
  41:inputs.c      ****     {
  42:inputs.c      **** // sets display update variable 
  43:inputs.c      **** //        DISPLAY_UPDATE = 1;
  44:inputs.c      **** // stop timer and wait for another software call to start        
  45:inputs.c      ****         DISPLAY_Timer_Stop();
  51              		.loc 1 45 0
  52 0012 FFF7FEFF 		bl	DISPLAY_Timer_Stop
  53              	.L3:
  46:inputs.c      ****     }
  47:inputs.c      **** }
  54              		.loc 1 47 0
  55 0016 C046     		nop
  56 0018 BD46     		mov	sp, r7
  57              		@ sp needed
  58 001a 80BD     		pop	{r7, pc}
  59              		.cfi_endproc
  60              	.LFE32:
  61              		.size	DISPLAY_Timer_INTHandler, .-DISPLAY_Timer_INTHandler
  62              		.section	.text.Slave_ISR,"ax",%progbits
  63              		.align	2
  64              		.global	Slave_ISR
  65              		.code	16
  66              		.thumb_func
  67              		.type	Slave_ISR, %function
ARM GAS  C:\Users\Ala\AppData\Local\Temp\cctVcZRH.s 			page 3


  68              	Slave_ISR:
  69              	.LFB33:
  48:inputs.c      **** 
  49:inputs.c      **** 
  50:inputs.c      **** 
  51:inputs.c      **** 
  52:inputs.c      **** /*******************************************************************************
  53:inputs.c      **** * Function Name: Slave_ISR
  54:inputs.c      **** ********************************************************************************
  55:inputs.c      **** * Summary:
  56:inputs.c      **** *  The main function performs the following actions:
  57:inputs.c      **** *   1. Sets the flag to 1
  58:inputs.c      **** *
  59:inputs.c      **** * Parameters:
  60:inputs.c      **** *  None
  61:inputs.c      **** *
  62:inputs.c      **** * Return:
  63:inputs.c      **** *  None
  64:inputs.c      **** *
  65:inputs.c      **** *******************************************************************************/
  66:inputs.c      **** void Slave_ISR()
  67:inputs.c      **** {
  70              		.loc 1 67 0
  71              		.cfi_startproc
  72              		@ args = 0, pretend = 0, frame = 0
  73              		@ frame_needed = 1, uses_anonymous_args = 0
  74 0000 80B5     		push	{r7, lr}
  75              		.cfi_def_cfa_offset 8
  76              		.cfi_offset 7, -8
  77              		.cfi_offset 14, -4
  78 0002 00AF     		add	r7, sp, #0
  79              		.cfi_def_cfa_register 7
  68:inputs.c      ****     /* Sets global flag for use by background thread */
  69:inputs.c      ****     flag = 1;
  80              		.loc 1 69 0
  81 0004 024B     		ldr	r3, .L5
  82 0006 0122     		movs	r2, #1
  83 0008 1A70     		strb	r2, [r3]
  70:inputs.c      **** }
  84              		.loc 1 70 0
  85 000a C046     		nop
  86 000c BD46     		mov	sp, r7
  87              		@ sp needed
  88 000e 80BD     		pop	{r7, pc}
  89              	.L6:
  90              		.align	2
  91              	.L5:
  92 0010 00000000 		.word	flag
  93              		.cfi_endproc
  94              	.LFE33:
  95              		.size	Slave_ISR, .-Slave_ISR
  96              		.text
  97              	.Letext0:
  98              		.file 2 "Generated_Source\\PSoC4/cytypes.h"