ARM GAS  C:\Users\Ala\AppData\Local\Temp\cc9JmUv6.s 			page 1


   1              		.syntax unified
   2              		.cpu cortex-m0
   3              		.fpu softvfp
   4              		.eabi_attribute 20, 1
   5              		.eabi_attribute 21, 1
   6              		.eabi_attribute 23, 3
   7              		.eabi_attribute 24, 1
   8              		.eabi_attribute 25, 1
   9              		.eabi_attribute 26, 1
  10              		.eabi_attribute 30, 6
  11              		.eabi_attribute 34, 0
  12              		.eabi_attribute 18, 4
  13              		.thumb
  14              		.syntax unified
  15              		.file	"SPIS_SPI.c"
  16              		.text
  17              	.Ltext0:
  18              		.cfi_sections	.debug_frame
  19              		.section	.text.SPIS_SpiInit,"ax",%progbits
  20              		.align	2
  21              		.global	SPIS_SpiInit
  22              		.code	16
  23              		.thumb_func
  24              		.type	SPIS_SpiInit, %function
  25              	SPIS_SpiInit:
  26              	.LFB0:
  27              		.file 1 "Generated_Source\\PSoC4\\SPIS_SPI.c"
   1:Generated_Source\PSoC4/SPIS_SPI.c **** /***************************************************************************//**
   2:Generated_Source\PSoC4/SPIS_SPI.c **** * \file SPIS_SPI.c
   3:Generated_Source\PSoC4/SPIS_SPI.c **** * \version 4.0
   4:Generated_Source\PSoC4/SPIS_SPI.c **** *
   5:Generated_Source\PSoC4/SPIS_SPI.c **** * \brief
   6:Generated_Source\PSoC4/SPIS_SPI.c **** *  This file provides the source code to the API for the SCB Component in
   7:Generated_Source\PSoC4/SPIS_SPI.c **** *  SPI mode.
   8:Generated_Source\PSoC4/SPIS_SPI.c **** *
   9:Generated_Source\PSoC4/SPIS_SPI.c **** * Note:
  10:Generated_Source\PSoC4/SPIS_SPI.c **** *
  11:Generated_Source\PSoC4/SPIS_SPI.c **** *******************************************************************************
  12:Generated_Source\PSoC4/SPIS_SPI.c **** * \copyright
  13:Generated_Source\PSoC4/SPIS_SPI.c **** * Copyright 2013-2017, Cypress Semiconductor Corporation.  All rights reserved.
  14:Generated_Source\PSoC4/SPIS_SPI.c **** * You may use this file only in accordance with the license, terms, conditions,
  15:Generated_Source\PSoC4/SPIS_SPI.c **** * disclaimers, and limitations in the end user license agreement accompanying
  16:Generated_Source\PSoC4/SPIS_SPI.c **** * the software package with which this file was provided.
  17:Generated_Source\PSoC4/SPIS_SPI.c **** *******************************************************************************/
  18:Generated_Source\PSoC4/SPIS_SPI.c **** 
  19:Generated_Source\PSoC4/SPIS_SPI.c **** #include "SPIS_PVT.h"
  20:Generated_Source\PSoC4/SPIS_SPI.c **** #include "SPIS_SPI_UART_PVT.h"
  21:Generated_Source\PSoC4/SPIS_SPI.c **** 
  22:Generated_Source\PSoC4/SPIS_SPI.c **** #if(SPIS_SCB_MODE_UNCONFIG_CONST_CFG)
  23:Generated_Source\PSoC4/SPIS_SPI.c **** 
  24:Generated_Source\PSoC4/SPIS_SPI.c ****     /***************************************
  25:Generated_Source\PSoC4/SPIS_SPI.c ****     *  Configuration Structure Initialization
  26:Generated_Source\PSoC4/SPIS_SPI.c ****     ***************************************/
  27:Generated_Source\PSoC4/SPIS_SPI.c **** 
  28:Generated_Source\PSoC4/SPIS_SPI.c ****     const SPIS_SPI_INIT_STRUCT SPIS_configSpi =
  29:Generated_Source\PSoC4/SPIS_SPI.c ****     {
  30:Generated_Source\PSoC4/SPIS_SPI.c ****         SPIS_SPI_MODE,
ARM GAS  C:\Users\Ala\AppData\Local\Temp\cc9JmUv6.s 			page 2


  31:Generated_Source\PSoC4/SPIS_SPI.c ****         SPIS_SPI_SUB_MODE,
  32:Generated_Source\PSoC4/SPIS_SPI.c ****         SPIS_SPI_CLOCK_MODE,
  33:Generated_Source\PSoC4/SPIS_SPI.c ****         SPIS_SPI_OVS_FACTOR,
  34:Generated_Source\PSoC4/SPIS_SPI.c ****         SPIS_SPI_MEDIAN_FILTER_ENABLE,
  35:Generated_Source\PSoC4/SPIS_SPI.c ****         SPIS_SPI_LATE_MISO_SAMPLE_ENABLE,
  36:Generated_Source\PSoC4/SPIS_SPI.c ****         SPIS_SPI_WAKE_ENABLE,
  37:Generated_Source\PSoC4/SPIS_SPI.c ****         SPIS_SPI_RX_DATA_BITS_NUM,
  38:Generated_Source\PSoC4/SPIS_SPI.c ****         SPIS_SPI_TX_DATA_BITS_NUM,
  39:Generated_Source\PSoC4/SPIS_SPI.c ****         SPIS_SPI_BITS_ORDER,
  40:Generated_Source\PSoC4/SPIS_SPI.c ****         SPIS_SPI_TRANSFER_SEPARATION,
  41:Generated_Source\PSoC4/SPIS_SPI.c ****         0u,
  42:Generated_Source\PSoC4/SPIS_SPI.c ****         NULL,
  43:Generated_Source\PSoC4/SPIS_SPI.c ****         0u,
  44:Generated_Source\PSoC4/SPIS_SPI.c ****         NULL,
  45:Generated_Source\PSoC4/SPIS_SPI.c ****         (uint32) SPIS_SCB_IRQ_INTERNAL,
  46:Generated_Source\PSoC4/SPIS_SPI.c ****         SPIS_SPI_INTR_RX_MASK,
  47:Generated_Source\PSoC4/SPIS_SPI.c ****         SPIS_SPI_RX_TRIGGER_LEVEL,
  48:Generated_Source\PSoC4/SPIS_SPI.c ****         SPIS_SPI_INTR_TX_MASK,
  49:Generated_Source\PSoC4/SPIS_SPI.c ****         SPIS_SPI_TX_TRIGGER_LEVEL,
  50:Generated_Source\PSoC4/SPIS_SPI.c ****         (uint8) SPIS_SPI_BYTE_MODE_ENABLE,
  51:Generated_Source\PSoC4/SPIS_SPI.c ****         (uint8) SPIS_SPI_FREE_RUN_SCLK_ENABLE,
  52:Generated_Source\PSoC4/SPIS_SPI.c ****         (uint8) SPIS_SPI_SS_POLARITY
  53:Generated_Source\PSoC4/SPIS_SPI.c ****     };
  54:Generated_Source\PSoC4/SPIS_SPI.c **** 
  55:Generated_Source\PSoC4/SPIS_SPI.c **** 
  56:Generated_Source\PSoC4/SPIS_SPI.c ****     /*******************************************************************************
  57:Generated_Source\PSoC4/SPIS_SPI.c ****     * Function Name: SPIS_SpiInit
  58:Generated_Source\PSoC4/SPIS_SPI.c ****     ****************************************************************************//**
  59:Generated_Source\PSoC4/SPIS_SPI.c ****     *
  60:Generated_Source\PSoC4/SPIS_SPI.c ****     *  Configures the SPIS for SPI operation.
  61:Generated_Source\PSoC4/SPIS_SPI.c ****     *
  62:Generated_Source\PSoC4/SPIS_SPI.c ****     *  This function is intended specifically to be used when the SPIS 
  63:Generated_Source\PSoC4/SPIS_SPI.c ****     *  configuration is set to “Unconfigured SPIS” in the customizer. 
  64:Generated_Source\PSoC4/SPIS_SPI.c ****     *  After initializing the SPIS in SPI mode using this function, 
  65:Generated_Source\PSoC4/SPIS_SPI.c ****     *  the component can be enabled using the SPIS_Start() or 
  66:Generated_Source\PSoC4/SPIS_SPI.c ****     * SPIS_Enable() function.
  67:Generated_Source\PSoC4/SPIS_SPI.c ****     *  This function uses a pointer to a structure that provides the configuration 
  68:Generated_Source\PSoC4/SPIS_SPI.c ****     *  settings. This structure contains the same information that would otherwise 
  69:Generated_Source\PSoC4/SPIS_SPI.c ****     *  be provided by the customizer settings.
  70:Generated_Source\PSoC4/SPIS_SPI.c ****     *
  71:Generated_Source\PSoC4/SPIS_SPI.c ****     *  \param config: pointer to a structure that contains the following list of 
  72:Generated_Source\PSoC4/SPIS_SPI.c ****     *   fields. These fields match the selections available in the customizer. 
  73:Generated_Source\PSoC4/SPIS_SPI.c ****     *   Refer to the customizer for further description of the settings.
  74:Generated_Source\PSoC4/SPIS_SPI.c ****     *
  75:Generated_Source\PSoC4/SPIS_SPI.c ****     *******************************************************************************/
  76:Generated_Source\PSoC4/SPIS_SPI.c ****     void SPIS_SpiInit(const SPIS_SPI_INIT_STRUCT *config)
  77:Generated_Source\PSoC4/SPIS_SPI.c ****     {
  78:Generated_Source\PSoC4/SPIS_SPI.c ****         if(NULL == config)
  79:Generated_Source\PSoC4/SPIS_SPI.c ****         {
  80:Generated_Source\PSoC4/SPIS_SPI.c ****             CYASSERT(0u != 0u); /* Halt execution due to bad function parameter */
  81:Generated_Source\PSoC4/SPIS_SPI.c ****         }
  82:Generated_Source\PSoC4/SPIS_SPI.c ****         else
  83:Generated_Source\PSoC4/SPIS_SPI.c ****         {
  84:Generated_Source\PSoC4/SPIS_SPI.c ****             /* Configure pins */
  85:Generated_Source\PSoC4/SPIS_SPI.c ****             SPIS_SetPins(SPIS_SCB_MODE_SPI, config->mode, SPIS_DUMMY_PARAM);
  86:Generated_Source\PSoC4/SPIS_SPI.c **** 
  87:Generated_Source\PSoC4/SPIS_SPI.c ****             /* Store internal configuration */
ARM GAS  C:\Users\Ala\AppData\Local\Temp\cc9JmUv6.s 			page 3


  88:Generated_Source\PSoC4/SPIS_SPI.c ****             SPIS_scbMode       = (uint8) SPIS_SCB_MODE_SPI;
  89:Generated_Source\PSoC4/SPIS_SPI.c ****             SPIS_scbEnableWake = (uint8) config->enableWake;
  90:Generated_Source\PSoC4/SPIS_SPI.c ****             SPIS_scbEnableIntr = (uint8) config->enableInterrupt;
  91:Generated_Source\PSoC4/SPIS_SPI.c **** 
  92:Generated_Source\PSoC4/SPIS_SPI.c ****             /* Set RX direction internal variables */
  93:Generated_Source\PSoC4/SPIS_SPI.c ****             SPIS_rxBuffer      =         config->rxBuffer;
  94:Generated_Source\PSoC4/SPIS_SPI.c ****             SPIS_rxDataBits    = (uint8) config->rxDataBits;
  95:Generated_Source\PSoC4/SPIS_SPI.c ****             SPIS_rxBufferSize  =         config->rxBufferSize;
  96:Generated_Source\PSoC4/SPIS_SPI.c **** 
  97:Generated_Source\PSoC4/SPIS_SPI.c ****             /* Set TX direction internal variables */
  98:Generated_Source\PSoC4/SPIS_SPI.c ****             SPIS_txBuffer      =         config->txBuffer;
  99:Generated_Source\PSoC4/SPIS_SPI.c ****             SPIS_txDataBits    = (uint8) config->txDataBits;
 100:Generated_Source\PSoC4/SPIS_SPI.c ****             SPIS_txBufferSize  =         config->txBufferSize;
 101:Generated_Source\PSoC4/SPIS_SPI.c **** 
 102:Generated_Source\PSoC4/SPIS_SPI.c ****             /* Configure SPI interface */
 103:Generated_Source\PSoC4/SPIS_SPI.c ****             SPIS_CTRL_REG     = SPIS_GET_CTRL_OVS(config->oversample)           |
 104:Generated_Source\PSoC4/SPIS_SPI.c ****                                             SPIS_GET_CTRL_BYTE_MODE(config->enableByteMode) |
 105:Generated_Source\PSoC4/SPIS_SPI.c ****                                             SPIS_GET_CTRL_EC_AM_MODE(config->enableWake)    |
 106:Generated_Source\PSoC4/SPIS_SPI.c ****                                             SPIS_CTRL_SPI;
 107:Generated_Source\PSoC4/SPIS_SPI.c **** 
 108:Generated_Source\PSoC4/SPIS_SPI.c ****             SPIS_SPI_CTRL_REG = SPIS_GET_SPI_CTRL_CONTINUOUS    (config->transferSeperation)  |
 109:Generated_Source\PSoC4/SPIS_SPI.c ****                                             SPIS_GET_SPI_CTRL_SELECT_PRECEDE(config->submode &
 110:Generated_Source\PSoC4/SPIS_SPI.c ****                                                                           SPIS_SPI_MODE_TI_PRECEDES
 111:Generated_Source\PSoC4/SPIS_SPI.c ****                                             SPIS_GET_SPI_CTRL_SCLK_MODE     (config->sclkMode)     
 112:Generated_Source\PSoC4/SPIS_SPI.c ****                                             SPIS_GET_SPI_CTRL_LATE_MISO_SAMPLE(config->enableLateSa
 113:Generated_Source\PSoC4/SPIS_SPI.c ****                                             SPIS_GET_SPI_CTRL_SCLK_CONTINUOUS(config->enableFreeRun
 114:Generated_Source\PSoC4/SPIS_SPI.c ****                                             SPIS_GET_SPI_CTRL_SSEL_POLARITY (config->polaritySs)   
 115:Generated_Source\PSoC4/SPIS_SPI.c ****                                             SPIS_GET_SPI_CTRL_SUB_MODE      (config->submode)      
 116:Generated_Source\PSoC4/SPIS_SPI.c ****                                             SPIS_GET_SPI_CTRL_MASTER_MODE   (config->mode);
 117:Generated_Source\PSoC4/SPIS_SPI.c **** 
 118:Generated_Source\PSoC4/SPIS_SPI.c ****             /* Configure RX direction */
 119:Generated_Source\PSoC4/SPIS_SPI.c ****             SPIS_RX_CTRL_REG     =  SPIS_GET_RX_CTRL_DATA_WIDTH(config->rxDataBits)         |
 120:Generated_Source\PSoC4/SPIS_SPI.c ****                                                 SPIS_GET_RX_CTRL_BIT_ORDER (config->bitOrder)      
 121:Generated_Source\PSoC4/SPIS_SPI.c ****                                                 SPIS_GET_RX_CTRL_MEDIAN    (config->enableMedianFil
 122:Generated_Source\PSoC4/SPIS_SPI.c ****                                                 SPIS_SPI_RX_CTRL;
 123:Generated_Source\PSoC4/SPIS_SPI.c **** 
 124:Generated_Source\PSoC4/SPIS_SPI.c ****             SPIS_RX_FIFO_CTRL_REG = SPIS_GET_RX_FIFO_CTRL_TRIGGER_LEVEL(config->rxTriggerLevel);
 125:Generated_Source\PSoC4/SPIS_SPI.c **** 
 126:Generated_Source\PSoC4/SPIS_SPI.c ****             /* Configure TX direction */
 127:Generated_Source\PSoC4/SPIS_SPI.c ****             SPIS_TX_CTRL_REG      = SPIS_GET_TX_CTRL_DATA_WIDTH(config->txDataBits) |
 128:Generated_Source\PSoC4/SPIS_SPI.c ****                                                 SPIS_GET_TX_CTRL_BIT_ORDER (config->bitOrder)   |
 129:Generated_Source\PSoC4/SPIS_SPI.c ****                                                 SPIS_SPI_TX_CTRL;
 130:Generated_Source\PSoC4/SPIS_SPI.c **** 
 131:Generated_Source\PSoC4/SPIS_SPI.c ****             SPIS_TX_FIFO_CTRL_REG = SPIS_GET_TX_FIFO_CTRL_TRIGGER_LEVEL(config->txTriggerLevel);
 132:Generated_Source\PSoC4/SPIS_SPI.c **** 
 133:Generated_Source\PSoC4/SPIS_SPI.c ****             /* Configure interrupt with SPI handler but do not enable it */
 134:Generated_Source\PSoC4/SPIS_SPI.c ****             CyIntDisable    (SPIS_ISR_NUMBER);
 135:Generated_Source\PSoC4/SPIS_SPI.c ****             CyIntSetPriority(SPIS_ISR_NUMBER, SPIS_ISR_PRIORITY);
 136:Generated_Source\PSoC4/SPIS_SPI.c ****             (void) CyIntSetVector(SPIS_ISR_NUMBER, &SPIS_SPI_UART_ISR);
 137:Generated_Source\PSoC4/SPIS_SPI.c **** 
 138:Generated_Source\PSoC4/SPIS_SPI.c ****             /* Configure interrupt sources */
 139:Generated_Source\PSoC4/SPIS_SPI.c ****             SPIS_INTR_I2C_EC_MASK_REG = SPIS_NO_INTR_SOURCES;
 140:Generated_Source\PSoC4/SPIS_SPI.c ****             SPIS_INTR_SPI_EC_MASK_REG = SPIS_NO_INTR_SOURCES;
 141:Generated_Source\PSoC4/SPIS_SPI.c ****             SPIS_INTR_SLAVE_MASK_REG  = SPIS_GET_SPI_INTR_SLAVE_MASK(config->rxInterruptMask);
 142:Generated_Source\PSoC4/SPIS_SPI.c ****             SPIS_INTR_MASTER_MASK_REG = SPIS_GET_SPI_INTR_MASTER_MASK(config->txInterruptMask);
 143:Generated_Source\PSoC4/SPIS_SPI.c ****             SPIS_INTR_RX_MASK_REG     = SPIS_GET_SPI_INTR_RX_MASK(config->rxInterruptMask);
 144:Generated_Source\PSoC4/SPIS_SPI.c ****             SPIS_INTR_TX_MASK_REG     = SPIS_GET_SPI_INTR_TX_MASK(config->txInterruptMask);
ARM GAS  C:\Users\Ala\AppData\Local\Temp\cc9JmUv6.s 			page 4


 145:Generated_Source\PSoC4/SPIS_SPI.c ****             
 146:Generated_Source\PSoC4/SPIS_SPI.c ****             /* Configure TX interrupt sources to restore. */
 147:Generated_Source\PSoC4/SPIS_SPI.c ****             SPIS_IntrTxMask = LO16(SPIS_INTR_TX_MASK_REG);
 148:Generated_Source\PSoC4/SPIS_SPI.c **** 
 149:Generated_Source\PSoC4/SPIS_SPI.c ****             /* Set active SS0 */
 150:Generated_Source\PSoC4/SPIS_SPI.c ****             SPIS_SpiSetActiveSlaveSelect(SPIS_SPI_SLAVE_SELECT0);
 151:Generated_Source\PSoC4/SPIS_SPI.c **** 
 152:Generated_Source\PSoC4/SPIS_SPI.c ****             /* Clear RX buffer indexes */
 153:Generated_Source\PSoC4/SPIS_SPI.c ****             SPIS_rxBufferHead     = 0u;
 154:Generated_Source\PSoC4/SPIS_SPI.c ****             SPIS_rxBufferTail     = 0u;
 155:Generated_Source\PSoC4/SPIS_SPI.c ****             SPIS_rxBufferOverflow = 0u;
 156:Generated_Source\PSoC4/SPIS_SPI.c **** 
 157:Generated_Source\PSoC4/SPIS_SPI.c ****             /* Clear TX buffer indexes */
 158:Generated_Source\PSoC4/SPIS_SPI.c ****             SPIS_txBufferHead = 0u;
 159:Generated_Source\PSoC4/SPIS_SPI.c ****             SPIS_txBufferTail = 0u;
 160:Generated_Source\PSoC4/SPIS_SPI.c ****         }
 161:Generated_Source\PSoC4/SPIS_SPI.c ****     }
 162:Generated_Source\PSoC4/SPIS_SPI.c **** 
 163:Generated_Source\PSoC4/SPIS_SPI.c **** #else
 164:Generated_Source\PSoC4/SPIS_SPI.c **** 
 165:Generated_Source\PSoC4/SPIS_SPI.c ****     /*******************************************************************************
 166:Generated_Source\PSoC4/SPIS_SPI.c ****     * Function Name: SPIS_SpiInit
 167:Generated_Source\PSoC4/SPIS_SPI.c ****     ****************************************************************************//**
 168:Generated_Source\PSoC4/SPIS_SPI.c ****     *
 169:Generated_Source\PSoC4/SPIS_SPI.c ****     *  Configures the SCB for the SPI operation.
 170:Generated_Source\PSoC4/SPIS_SPI.c ****     *
 171:Generated_Source\PSoC4/SPIS_SPI.c ****     *******************************************************************************/
 172:Generated_Source\PSoC4/SPIS_SPI.c ****     void SPIS_SpiInit(void)
 173:Generated_Source\PSoC4/SPIS_SPI.c ****     {
  28              		.loc 1 173 0
  29              		.cfi_startproc
  30              		@ args = 0, pretend = 0, frame = 0
  31              		@ frame_needed = 1, uses_anonymous_args = 0
  32 0000 80B5     		push	{r7, lr}
  33              		.cfi_def_cfa_offset 8
  34              		.cfi_offset 7, -8
  35              		.cfi_offset 14, -4
  36 0002 00AF     		add	r7, sp, #0
  37              		.cfi_def_cfa_register 7
 174:Generated_Source\PSoC4/SPIS_SPI.c ****         /* Configure SPI interface */
 175:Generated_Source\PSoC4/SPIS_SPI.c ****         SPIS_CTRL_REG     = SPIS_SPI_DEFAULT_CTRL;
  38              		.loc 1 175 0
  39 0004 234B     		ldr	r3, .L2
  40 0006 244A     		ldr	r2, .L2+4
  41 0008 1A60     		str	r2, [r3]
 176:Generated_Source\PSoC4/SPIS_SPI.c ****         SPIS_SPI_CTRL_REG = SPIS_SPI_DEFAULT_SPI_CTRL;
  42              		.loc 1 176 0
  43 000a 244B     		ldr	r3, .L2+8
  44 000c 0D22     		movs	r2, #13
  45 000e 1A60     		str	r2, [r3]
 177:Generated_Source\PSoC4/SPIS_SPI.c **** 
 178:Generated_Source\PSoC4/SPIS_SPI.c ****         /* Configure TX and RX direction */
 179:Generated_Source\PSoC4/SPIS_SPI.c ****         SPIS_RX_CTRL_REG      = SPIS_SPI_DEFAULT_RX_CTRL;
  46              		.loc 1 179 0
  47 0010 234B     		ldr	r3, .L2+12
  48 0012 244A     		ldr	r2, .L2+16
  49 0014 1A60     		str	r2, [r3]
ARM GAS  C:\Users\Ala\AppData\Local\Temp\cc9JmUv6.s 			page 5


 180:Generated_Source\PSoC4/SPIS_SPI.c ****         SPIS_RX_FIFO_CTRL_REG = SPIS_SPI_DEFAULT_RX_FIFO_CTRL;
  50              		.loc 1 180 0
  51 0016 244B     		ldr	r3, .L2+20
  52 0018 0022     		movs	r2, #0
  53 001a 1A60     		str	r2, [r3]
 181:Generated_Source\PSoC4/SPIS_SPI.c **** 
 182:Generated_Source\PSoC4/SPIS_SPI.c ****         /* Configure TX and RX direction */
 183:Generated_Source\PSoC4/SPIS_SPI.c ****         SPIS_TX_CTRL_REG      = SPIS_SPI_DEFAULT_TX_CTRL;
  54              		.loc 1 183 0
  55 001c 234B     		ldr	r3, .L2+24
  56 001e 244A     		ldr	r2, .L2+28
  57 0020 1A60     		str	r2, [r3]
 184:Generated_Source\PSoC4/SPIS_SPI.c ****         SPIS_TX_FIFO_CTRL_REG = SPIS_SPI_DEFAULT_TX_FIFO_CTRL;
  58              		.loc 1 184 0
  59 0022 244B     		ldr	r3, .L2+32
  60 0024 0122     		movs	r2, #1
  61 0026 1A60     		str	r2, [r3]
 185:Generated_Source\PSoC4/SPIS_SPI.c **** 
 186:Generated_Source\PSoC4/SPIS_SPI.c ****         /* Configure interrupt with SPI handler but do not enable it */
 187:Generated_Source\PSoC4/SPIS_SPI.c ****     #if(SPIS_SCB_IRQ_INTERNAL)
 188:Generated_Source\PSoC4/SPIS_SPI.c ****             CyIntDisable    (SPIS_ISR_NUMBER);
  62              		.loc 1 188 0
  63 0028 0B20     		movs	r0, #11
  64 002a FFF7FEFF 		bl	CyIntDisable
 189:Generated_Source\PSoC4/SPIS_SPI.c ****             CyIntSetPriority(SPIS_ISR_NUMBER, SPIS_ISR_PRIORITY);
  65              		.loc 1 189 0
  66 002e 0321     		movs	r1, #3
  67 0030 0B20     		movs	r0, #11
  68 0032 FFF7FEFF 		bl	CyIntSetPriority
 190:Generated_Source\PSoC4/SPIS_SPI.c ****             (void) CyIntSetVector(SPIS_ISR_NUMBER, &SPIS_SPI_UART_ISR);
  69              		.loc 1 190 0
  70 0036 204B     		ldr	r3, .L2+36
  71 0038 1900     		movs	r1, r3
  72 003a 0B20     		movs	r0, #11
  73 003c FFF7FEFF 		bl	CyIntSetVector
 191:Generated_Source\PSoC4/SPIS_SPI.c ****     #endif /* (SPIS_SCB_IRQ_INTERNAL) */
 192:Generated_Source\PSoC4/SPIS_SPI.c **** 
 193:Generated_Source\PSoC4/SPIS_SPI.c ****         /* Configure interrupt sources */
 194:Generated_Source\PSoC4/SPIS_SPI.c ****         SPIS_INTR_I2C_EC_MASK_REG = SPIS_SPI_DEFAULT_INTR_I2C_EC_MASK;
  74              		.loc 1 194 0
  75 0040 1E4B     		ldr	r3, .L2+40
  76 0042 0022     		movs	r2, #0
  77 0044 1A60     		str	r2, [r3]
 195:Generated_Source\PSoC4/SPIS_SPI.c ****         SPIS_INTR_SPI_EC_MASK_REG = SPIS_SPI_DEFAULT_INTR_SPI_EC_MASK;
  78              		.loc 1 195 0
  79 0046 1E4B     		ldr	r3, .L2+44
  80 0048 0022     		movs	r2, #0
  81 004a 1A60     		str	r2, [r3]
 196:Generated_Source\PSoC4/SPIS_SPI.c ****         SPIS_INTR_SLAVE_MASK_REG  = SPIS_SPI_DEFAULT_INTR_SLAVE_MASK;
  82              		.loc 1 196 0
  83 004c 1D4B     		ldr	r3, .L2+48
  84 004e 0022     		movs	r2, #0
  85 0050 1A60     		str	r2, [r3]
 197:Generated_Source\PSoC4/SPIS_SPI.c ****         SPIS_INTR_MASTER_MASK_REG = SPIS_SPI_DEFAULT_INTR_MASTER_MASK;
  86              		.loc 1 197 0
  87 0052 1D4B     		ldr	r3, .L2+52
  88 0054 0022     		movs	r2, #0
ARM GAS  C:\Users\Ala\AppData\Local\Temp\cc9JmUv6.s 			page 6


  89 0056 1A60     		str	r2, [r3]
 198:Generated_Source\PSoC4/SPIS_SPI.c ****         SPIS_INTR_RX_MASK_REG     = SPIS_SPI_DEFAULT_INTR_RX_MASK;
  90              		.loc 1 198 0
  91 0058 1C4B     		ldr	r3, .L2+56
  92 005a 0422     		movs	r2, #4
  93 005c 1A60     		str	r2, [r3]
 199:Generated_Source\PSoC4/SPIS_SPI.c ****         SPIS_INTR_TX_MASK_REG     = SPIS_SPI_DEFAULT_INTR_TX_MASK;
  94              		.loc 1 199 0
  95 005e 1C4B     		ldr	r3, .L2+60
  96 0060 0022     		movs	r2, #0
  97 0062 1A60     		str	r2, [r3]
 200:Generated_Source\PSoC4/SPIS_SPI.c **** 
 201:Generated_Source\PSoC4/SPIS_SPI.c ****         /* Configure TX interrupt sources to restore. */
 202:Generated_Source\PSoC4/SPIS_SPI.c ****         SPIS_IntrTxMask = LO16(SPIS_INTR_TX_MASK_REG);
  98              		.loc 1 202 0
  99 0064 1A4B     		ldr	r3, .L2+60
 100 0066 1B68     		ldr	r3, [r3]
 101 0068 9AB2     		uxth	r2, r3
 102 006a 1A4B     		ldr	r3, .L2+64
 103 006c 1A80     		strh	r2, [r3]
 203:Generated_Source\PSoC4/SPIS_SPI.c ****             
 204:Generated_Source\PSoC4/SPIS_SPI.c ****         /* Set active SS0 for master */
 205:Generated_Source\PSoC4/SPIS_SPI.c ****     #if (SPIS_SPI_MASTER_CONST)
 206:Generated_Source\PSoC4/SPIS_SPI.c ****         SPIS_SpiSetActiveSlaveSelect(SPIS_SPI_SLAVE_SELECT0);
 207:Generated_Source\PSoC4/SPIS_SPI.c ****     #endif /* (SPIS_SPI_MASTER_CONST) */
 208:Generated_Source\PSoC4/SPIS_SPI.c **** 
 209:Generated_Source\PSoC4/SPIS_SPI.c ****     #if(SPIS_INTERNAL_RX_SW_BUFFER_CONST)
 210:Generated_Source\PSoC4/SPIS_SPI.c ****         SPIS_rxBufferHead     = 0u;
 104              		.loc 1 210 0
 105 006e 1A4B     		ldr	r3, .L2+68
 106 0070 0022     		movs	r2, #0
 107 0072 1A60     		str	r2, [r3]
 211:Generated_Source\PSoC4/SPIS_SPI.c ****         SPIS_rxBufferTail     = 0u;
 108              		.loc 1 211 0
 109 0074 194B     		ldr	r3, .L2+72
 110 0076 0022     		movs	r2, #0
 111 0078 1A60     		str	r2, [r3]
 212:Generated_Source\PSoC4/SPIS_SPI.c ****         SPIS_rxBufferOverflow = 0u;
 112              		.loc 1 212 0
 113 007a 194B     		ldr	r3, .L2+76
 114 007c 0022     		movs	r2, #0
 115 007e 1A70     		strb	r2, [r3]
 213:Generated_Source\PSoC4/SPIS_SPI.c ****     #endif /* (SPIS_INTERNAL_RX_SW_BUFFER_CONST) */
 214:Generated_Source\PSoC4/SPIS_SPI.c **** 
 215:Generated_Source\PSoC4/SPIS_SPI.c ****     #if(SPIS_INTERNAL_TX_SW_BUFFER_CONST)
 216:Generated_Source\PSoC4/SPIS_SPI.c ****         SPIS_txBufferHead = 0u;
 116              		.loc 1 216 0
 117 0080 184B     		ldr	r3, .L2+80
 118 0082 0022     		movs	r2, #0
 119 0084 1A60     		str	r2, [r3]
 217:Generated_Source\PSoC4/SPIS_SPI.c ****         SPIS_txBufferTail = 0u;
 120              		.loc 1 217 0
 121 0086 184B     		ldr	r3, .L2+84
 122 0088 0022     		movs	r2, #0
 123 008a 1A60     		str	r2, [r3]
 218:Generated_Source\PSoC4/SPIS_SPI.c ****     #endif /* (SPIS_INTERNAL_TX_SW_BUFFER_CONST) */
 219:Generated_Source\PSoC4/SPIS_SPI.c ****     }
ARM GAS  C:\Users\Ala\AppData\Local\Temp\cc9JmUv6.s 			page 7


 124              		.loc 1 219 0
 125 008c C046     		nop
 126 008e BD46     		mov	sp, r7
 127              		@ sp needed
 128 0090 80BD     		pop	{r7, pc}
 129              	.L3:
 130 0092 C046     		.align	2
 131              	.L2:
 132 0094 00000740 		.word	1074200576
 133 0098 07000001 		.word	16777223
 134 009c 20000740 		.word	1074200608
 135 00a0 00030740 		.word	1074201344
 136 00a4 07030080 		.word	-2147482873
 137 00a8 04030740 		.word	1074201348
 138 00ac 00020740 		.word	1074201088
 139 00b0 07010080 		.word	-2147483385
 140 00b4 04020740 		.word	1074201092
 141 00b8 00000000 		.word	SPIS_SPI_UART_ISR
 142 00bc 880E0740 		.word	1074204296
 143 00c0 C80E0740 		.word	1074204360
 144 00c4 480F0740 		.word	1074204488
 145 00c8 080F0740 		.word	1074204424
 146 00cc C80F0740 		.word	1074204616
 147 00d0 880F0740 		.word	1074204552
 148 00d4 00000000 		.word	SPIS_IntrTxMask
 149 00d8 00000000 		.word	SPIS_rxBufferHead
 150 00dc 00000000 		.word	SPIS_rxBufferTail
 151 00e0 00000000 		.word	SPIS_rxBufferOverflow
 152 00e4 00000000 		.word	SPIS_txBufferHead
 153 00e8 00000000 		.word	SPIS_txBufferTail
 154              		.cfi_endproc
 155              	.LFE0:
 156              		.size	SPIS_SpiInit, .-SPIS_SpiInit
 157              		.section	.text.SPIS_SpiPostEnable,"ax",%progbits
 158              		.align	2
 159              		.global	SPIS_SpiPostEnable
 160              		.code	16
 161              		.thumb_func
 162              		.type	SPIS_SpiPostEnable, %function
 163              	SPIS_SpiPostEnable:
 164              	.LFB1:
 220:Generated_Source\PSoC4/SPIS_SPI.c **** #endif /* (SPIS_SCB_MODE_UNCONFIG_CONST_CFG) */
 221:Generated_Source\PSoC4/SPIS_SPI.c **** 
 222:Generated_Source\PSoC4/SPIS_SPI.c **** 
 223:Generated_Source\PSoC4/SPIS_SPI.c **** /*******************************************************************************
 224:Generated_Source\PSoC4/SPIS_SPI.c **** * Function Name: SPIS_SpiPostEnable
 225:Generated_Source\PSoC4/SPIS_SPI.c **** ****************************************************************************//**
 226:Generated_Source\PSoC4/SPIS_SPI.c **** *
 227:Generated_Source\PSoC4/SPIS_SPI.c **** *  Restores HSIOM settings for the SPI master output pins (SCLK and/or SS0-SS3) 
 228:Generated_Source\PSoC4/SPIS_SPI.c **** *  to be controlled by the SCB SPI.
 229:Generated_Source\PSoC4/SPIS_SPI.c **** *
 230:Generated_Source\PSoC4/SPIS_SPI.c **** *******************************************************************************/
 231:Generated_Source\PSoC4/SPIS_SPI.c **** void SPIS_SpiPostEnable(void)
 232:Generated_Source\PSoC4/SPIS_SPI.c **** {
 165              		.loc 1 232 0
 166              		.cfi_startproc
 167              		@ args = 0, pretend = 0, frame = 0
ARM GAS  C:\Users\Ala\AppData\Local\Temp\cc9JmUv6.s 			page 8


 168              		@ frame_needed = 1, uses_anonymous_args = 0
 169 0000 80B5     		push	{r7, lr}
 170              		.cfi_def_cfa_offset 8
 171              		.cfi_offset 7, -8
 172              		.cfi_offset 14, -4
 173 0002 00AF     		add	r7, sp, #0
 174              		.cfi_def_cfa_register 7
 233:Generated_Source\PSoC4/SPIS_SPI.c **** #if(SPIS_SCB_MODE_UNCONFIG_CONST_CFG)
 234:Generated_Source\PSoC4/SPIS_SPI.c **** 
 235:Generated_Source\PSoC4/SPIS_SPI.c ****     if (SPIS_CHECK_SPI_MASTER)
 236:Generated_Source\PSoC4/SPIS_SPI.c ****     {
 237:Generated_Source\PSoC4/SPIS_SPI.c ****     #if (SPIS_SCLK_PIN)
 238:Generated_Source\PSoC4/SPIS_SPI.c ****         /* Set SCB SPI to drive output pin */
 239:Generated_Source\PSoC4/SPIS_SPI.c ****         SPIS_SET_HSIOM_SEL(SPIS_SCLK_HSIOM_REG, SPIS_SCLK_HSIOM_MASK,
 240:Generated_Source\PSoC4/SPIS_SPI.c ****                                        SPIS_SCLK_HSIOM_POS, SPIS_SCLK_HSIOM_SEL_SPI);
 241:Generated_Source\PSoC4/SPIS_SPI.c ****     #endif /* (SPIS_SCLK_PIN) */
 242:Generated_Source\PSoC4/SPIS_SPI.c **** 
 243:Generated_Source\PSoC4/SPIS_SPI.c ****     #if (SPIS_SS0_PIN)
 244:Generated_Source\PSoC4/SPIS_SPI.c ****         /* Set SCB SPI to drive output pin */
 245:Generated_Source\PSoC4/SPIS_SPI.c ****         SPIS_SET_HSIOM_SEL(SPIS_SS0_HSIOM_REG, SPIS_SS0_HSIOM_MASK,
 246:Generated_Source\PSoC4/SPIS_SPI.c ****                                        SPIS_SS0_HSIOM_POS, SPIS_SS0_HSIOM_SEL_SPI);
 247:Generated_Source\PSoC4/SPIS_SPI.c ****     #endif /* (SPIS_SS0_PIN) */
 248:Generated_Source\PSoC4/SPIS_SPI.c **** 
 249:Generated_Source\PSoC4/SPIS_SPI.c ****     #if (SPIS_SS1_PIN)
 250:Generated_Source\PSoC4/SPIS_SPI.c ****         /* Set SCB SPI to drive output pin */
 251:Generated_Source\PSoC4/SPIS_SPI.c ****         SPIS_SET_HSIOM_SEL(SPIS_SS1_HSIOM_REG, SPIS_SS1_HSIOM_MASK,
 252:Generated_Source\PSoC4/SPIS_SPI.c ****                                        SPIS_SS1_HSIOM_POS, SPIS_SS1_HSIOM_SEL_SPI);
 253:Generated_Source\PSoC4/SPIS_SPI.c ****     #endif /* (SPIS_SS1_PIN) */
 254:Generated_Source\PSoC4/SPIS_SPI.c **** 
 255:Generated_Source\PSoC4/SPIS_SPI.c ****     #if (SPIS_SS2_PIN)
 256:Generated_Source\PSoC4/SPIS_SPI.c ****         /* Set SCB SPI to drive output pin */
 257:Generated_Source\PSoC4/SPIS_SPI.c ****         SPIS_SET_HSIOM_SEL(SPIS_SS2_HSIOM_REG, SPIS_SS2_HSIOM_MASK,
 258:Generated_Source\PSoC4/SPIS_SPI.c ****                                        SPIS_SS2_HSIOM_POS, SPIS_SS2_HSIOM_SEL_SPI);
 259:Generated_Source\PSoC4/SPIS_SPI.c ****     #endif /* (SPIS_SS2_PIN) */
 260:Generated_Source\PSoC4/SPIS_SPI.c **** 
 261:Generated_Source\PSoC4/SPIS_SPI.c ****     #if (SPIS_SS3_PIN)
 262:Generated_Source\PSoC4/SPIS_SPI.c ****         /* Set SCB SPI to drive output pin */
 263:Generated_Source\PSoC4/SPIS_SPI.c ****         SPIS_SET_HSIOM_SEL(SPIS_SS3_HSIOM_REG, SPIS_SS3_HSIOM_MASK,
 264:Generated_Source\PSoC4/SPIS_SPI.c ****                                        SPIS_SS3_HSIOM_POS, SPIS_SS3_HSIOM_SEL_SPI);
 265:Generated_Source\PSoC4/SPIS_SPI.c ****     #endif /* (SPIS_SS3_PIN) */
 266:Generated_Source\PSoC4/SPIS_SPI.c ****     }
 267:Generated_Source\PSoC4/SPIS_SPI.c **** 
 268:Generated_Source\PSoC4/SPIS_SPI.c **** #else
 269:Generated_Source\PSoC4/SPIS_SPI.c **** 
 270:Generated_Source\PSoC4/SPIS_SPI.c ****     #if (SPIS_SPI_MASTER_SCLK_PIN)
 271:Generated_Source\PSoC4/SPIS_SPI.c ****         /* Set SCB SPI to drive output pin */
 272:Generated_Source\PSoC4/SPIS_SPI.c ****         SPIS_SET_HSIOM_SEL(SPIS_SCLK_M_HSIOM_REG, SPIS_SCLK_M_HSIOM_MASK,
 273:Generated_Source\PSoC4/SPIS_SPI.c ****                                        SPIS_SCLK_M_HSIOM_POS, SPIS_SCLK_M_HSIOM_SEL_SPI);
 274:Generated_Source\PSoC4/SPIS_SPI.c ****     #endif /* (SPIS_MISO_SDA_TX_PIN_PIN) */
 275:Generated_Source\PSoC4/SPIS_SPI.c **** 
 276:Generated_Source\PSoC4/SPIS_SPI.c ****     #if (SPIS_SPI_MASTER_SS0_PIN)
 277:Generated_Source\PSoC4/SPIS_SPI.c ****         /* Set SCB SPI to drive output pin */
 278:Generated_Source\PSoC4/SPIS_SPI.c ****         SPIS_SET_HSIOM_SEL(SPIS_SS0_M_HSIOM_REG, SPIS_SS0_M_HSIOM_MASK,
 279:Generated_Source\PSoC4/SPIS_SPI.c ****                                        SPIS_SS0_M_HSIOM_POS, SPIS_SS0_M_HSIOM_SEL_SPI);
 280:Generated_Source\PSoC4/SPIS_SPI.c ****     #endif /* (SPIS_SPI_MASTER_SS0_PIN) */
 281:Generated_Source\PSoC4/SPIS_SPI.c **** 
 282:Generated_Source\PSoC4/SPIS_SPI.c ****     #if (SPIS_SPI_MASTER_SS1_PIN)
ARM GAS  C:\Users\Ala\AppData\Local\Temp\cc9JmUv6.s 			page 9


 283:Generated_Source\PSoC4/SPIS_SPI.c ****         /* Set SCB SPI to drive output pin */
 284:Generated_Source\PSoC4/SPIS_SPI.c ****         SPIS_SET_HSIOM_SEL(SPIS_SS1_M_HSIOM_REG, SPIS_SS1_M_HSIOM_MASK,
 285:Generated_Source\PSoC4/SPIS_SPI.c ****                                        SPIS_SS1_M_HSIOM_POS, SPIS_SS1_M_HSIOM_SEL_SPI);
 286:Generated_Source\PSoC4/SPIS_SPI.c ****     #endif /* (SPIS_SPI_MASTER_SS1_PIN) */
 287:Generated_Source\PSoC4/SPIS_SPI.c **** 
 288:Generated_Source\PSoC4/SPIS_SPI.c ****     #if (SPIS_SPI_MASTER_SS2_PIN)
 289:Generated_Source\PSoC4/SPIS_SPI.c ****         /* Set SCB SPI to drive output pin */
 290:Generated_Source\PSoC4/SPIS_SPI.c ****         SPIS_SET_HSIOM_SEL(SPIS_SS2_M_HSIOM_REG, SPIS_SS2_M_HSIOM_MASK,
 291:Generated_Source\PSoC4/SPIS_SPI.c ****                                        SPIS_SS2_M_HSIOM_POS, SPIS_SS2_M_HSIOM_SEL_SPI);
 292:Generated_Source\PSoC4/SPIS_SPI.c ****     #endif /* (SPIS_SPI_MASTER_SS2_PIN) */
 293:Generated_Source\PSoC4/SPIS_SPI.c **** 
 294:Generated_Source\PSoC4/SPIS_SPI.c ****     #if (SPIS_SPI_MASTER_SS3_PIN)
 295:Generated_Source\PSoC4/SPIS_SPI.c ****         /* Set SCB SPI to drive output pin */
 296:Generated_Source\PSoC4/SPIS_SPI.c ****         SPIS_SET_HSIOM_SEL(SPIS_SS3_M_HSIOM_REG, SPIS_SS3_M_HSIOM_MASK,
 297:Generated_Source\PSoC4/SPIS_SPI.c ****                                        SPIS_SS3_M_HSIOM_POS, SPIS_SS3_M_HSIOM_SEL_SPI);
 298:Generated_Source\PSoC4/SPIS_SPI.c ****     #endif /* (SPIS_SPI_MASTER_SS3_PIN) */
 299:Generated_Source\PSoC4/SPIS_SPI.c **** 
 300:Generated_Source\PSoC4/SPIS_SPI.c **** #endif /* (SPIS_SCB_MODE_UNCONFIG_CONST_CFG) */
 301:Generated_Source\PSoC4/SPIS_SPI.c **** 
 302:Generated_Source\PSoC4/SPIS_SPI.c ****     /* Restore TX interrupt sources. */
 303:Generated_Source\PSoC4/SPIS_SPI.c ****     SPIS_SetTxInterruptMode(SPIS_IntrTxMask);
 175              		.loc 1 303 0
 176 0004 034B     		ldr	r3, .L5
 177 0006 044A     		ldr	r2, .L5+4
 178 0008 1288     		ldrh	r2, [r2]
 179 000a 1A60     		str	r2, [r3]
 304:Generated_Source\PSoC4/SPIS_SPI.c **** }
 180              		.loc 1 304 0
 181 000c C046     		nop
 182 000e BD46     		mov	sp, r7
 183              		@ sp needed
 184 0010 80BD     		pop	{r7, pc}
 185              	.L6:
 186 0012 C046     		.align	2
 187              	.L5:
 188 0014 880F0740 		.word	1074204552
 189 0018 00000000 		.word	SPIS_IntrTxMask
 190              		.cfi_endproc
 191              	.LFE1:
 192              		.size	SPIS_SpiPostEnable, .-SPIS_SpiPostEnable
 193              		.section	.text.SPIS_SpiStop,"ax",%progbits
 194              		.align	2
 195              		.global	SPIS_SpiStop
 196              		.code	16
 197              		.thumb_func
 198              		.type	SPIS_SpiStop, %function
 199              	SPIS_SpiStop:
 200              	.LFB2:
 305:Generated_Source\PSoC4/SPIS_SPI.c **** 
 306:Generated_Source\PSoC4/SPIS_SPI.c **** 
 307:Generated_Source\PSoC4/SPIS_SPI.c **** /*******************************************************************************
 308:Generated_Source\PSoC4/SPIS_SPI.c **** * Function Name: SPIS_SpiStop
 309:Generated_Source\PSoC4/SPIS_SPI.c **** ****************************************************************************//**
 310:Generated_Source\PSoC4/SPIS_SPI.c **** *
 311:Generated_Source\PSoC4/SPIS_SPI.c **** *  Changes the HSIOM settings for the SPI master output pins 
 312:Generated_Source\PSoC4/SPIS_SPI.c **** *  (SCLK and/or SS0-SS3) to keep them inactive after the block is disabled. 
 313:Generated_Source\PSoC4/SPIS_SPI.c **** *  The output pins are controlled by the GPIO data register.
ARM GAS  C:\Users\Ala\AppData\Local\Temp\cc9JmUv6.s 			page 10


 314:Generated_Source\PSoC4/SPIS_SPI.c **** *
 315:Generated_Source\PSoC4/SPIS_SPI.c **** *******************************************************************************/
 316:Generated_Source\PSoC4/SPIS_SPI.c **** void SPIS_SpiStop(void)
 317:Generated_Source\PSoC4/SPIS_SPI.c **** {
 201              		.loc 1 317 0
 202              		.cfi_startproc
 203              		@ args = 0, pretend = 0, frame = 0
 204              		@ frame_needed = 1, uses_anonymous_args = 0
 205 0000 80B5     		push	{r7, lr}
 206              		.cfi_def_cfa_offset 8
 207              		.cfi_offset 7, -8
 208              		.cfi_offset 14, -4
 209 0002 00AF     		add	r7, sp, #0
 210              		.cfi_def_cfa_register 7
 318:Generated_Source\PSoC4/SPIS_SPI.c **** #if(SPIS_SCB_MODE_UNCONFIG_CONST_CFG)
 319:Generated_Source\PSoC4/SPIS_SPI.c **** 
 320:Generated_Source\PSoC4/SPIS_SPI.c ****     if (SPIS_CHECK_SPI_MASTER)
 321:Generated_Source\PSoC4/SPIS_SPI.c ****     {
 322:Generated_Source\PSoC4/SPIS_SPI.c ****     #if (SPIS_SCLK_PIN)
 323:Generated_Source\PSoC4/SPIS_SPI.c ****         /* Set output pin state after block is disabled */
 324:Generated_Source\PSoC4/SPIS_SPI.c ****         SPIS_spi_sclk_Write(SPIS_GET_SPI_SCLK_INACTIVE);
 325:Generated_Source\PSoC4/SPIS_SPI.c **** 
 326:Generated_Source\PSoC4/SPIS_SPI.c ****         /* Set GPIO to drive output pin */
 327:Generated_Source\PSoC4/SPIS_SPI.c ****         SPIS_SET_HSIOM_SEL(SPIS_SCLK_HSIOM_REG, SPIS_SCLK_HSIOM_MASK,
 328:Generated_Source\PSoC4/SPIS_SPI.c ****                                        SPIS_SCLK_HSIOM_POS, SPIS_SCLK_HSIOM_SEL_GPIO);
 329:Generated_Source\PSoC4/SPIS_SPI.c ****     #endif /* (SPIS_spi_sclk_PIN) */
 330:Generated_Source\PSoC4/SPIS_SPI.c **** 
 331:Generated_Source\PSoC4/SPIS_SPI.c ****     #if (SPIS_SS0_PIN)
 332:Generated_Source\PSoC4/SPIS_SPI.c ****         /* Set output pin state after block is disabled */
 333:Generated_Source\PSoC4/SPIS_SPI.c ****         SPIS_spi_ss0_Write(SPIS_GET_SPI_SS0_INACTIVE);
 334:Generated_Source\PSoC4/SPIS_SPI.c **** 
 335:Generated_Source\PSoC4/SPIS_SPI.c ****         /* Set GPIO to drive output pin */
 336:Generated_Source\PSoC4/SPIS_SPI.c ****         SPIS_SET_HSIOM_SEL(SPIS_SS0_HSIOM_REG, SPIS_SS0_HSIOM_MASK,
 337:Generated_Source\PSoC4/SPIS_SPI.c ****                                        SPIS_SS0_HSIOM_POS, SPIS_SS0_HSIOM_SEL_GPIO);
 338:Generated_Source\PSoC4/SPIS_SPI.c ****     #endif /* (SPIS_spi_ss0_PIN) */
 339:Generated_Source\PSoC4/SPIS_SPI.c **** 
 340:Generated_Source\PSoC4/SPIS_SPI.c ****     #if (SPIS_SS1_PIN)
 341:Generated_Source\PSoC4/SPIS_SPI.c ****         /* Set output pin state after block is disabled */
 342:Generated_Source\PSoC4/SPIS_SPI.c ****         SPIS_spi_ss1_Write(SPIS_GET_SPI_SS1_INACTIVE);
 343:Generated_Source\PSoC4/SPIS_SPI.c **** 
 344:Generated_Source\PSoC4/SPIS_SPI.c ****         /* Set GPIO to drive output pin */
 345:Generated_Source\PSoC4/SPIS_SPI.c ****         SPIS_SET_HSIOM_SEL(SPIS_SS1_HSIOM_REG, SPIS_SS1_HSIOM_MASK,
 346:Generated_Source\PSoC4/SPIS_SPI.c ****                                        SPIS_SS1_HSIOM_POS, SPIS_SS1_HSIOM_SEL_GPIO);
 347:Generated_Source\PSoC4/SPIS_SPI.c ****     #endif /* (SPIS_SS1_PIN) */
 348:Generated_Source\PSoC4/SPIS_SPI.c **** 
 349:Generated_Source\PSoC4/SPIS_SPI.c ****     #if (SPIS_SS2_PIN)
 350:Generated_Source\PSoC4/SPIS_SPI.c ****         /* Set output pin state after block is disabled */
 351:Generated_Source\PSoC4/SPIS_SPI.c ****         SPIS_spi_ss2_Write(SPIS_GET_SPI_SS2_INACTIVE);
 352:Generated_Source\PSoC4/SPIS_SPI.c **** 
 353:Generated_Source\PSoC4/SPIS_SPI.c ****         /* Set GPIO to drive output pin */
 354:Generated_Source\PSoC4/SPIS_SPI.c ****         SPIS_SET_HSIOM_SEL(SPIS_SS2_HSIOM_REG, SPIS_SS2_HSIOM_MASK,
 355:Generated_Source\PSoC4/SPIS_SPI.c ****                                        SPIS_SS2_HSIOM_POS, SPIS_SS2_HSIOM_SEL_GPIO);
 356:Generated_Source\PSoC4/SPIS_SPI.c ****     #endif /* (SPIS_SS2_PIN) */
 357:Generated_Source\PSoC4/SPIS_SPI.c **** 
 358:Generated_Source\PSoC4/SPIS_SPI.c ****     #if (SPIS_SS3_PIN)
 359:Generated_Source\PSoC4/SPIS_SPI.c ****         /* Set output pin state after block is disabled */
 360:Generated_Source\PSoC4/SPIS_SPI.c ****         SPIS_spi_ss3_Write(SPIS_GET_SPI_SS3_INACTIVE);
ARM GAS  C:\Users\Ala\AppData\Local\Temp\cc9JmUv6.s 			page 11


 361:Generated_Source\PSoC4/SPIS_SPI.c **** 
 362:Generated_Source\PSoC4/SPIS_SPI.c ****         /* Set GPIO to drive output pin */
 363:Generated_Source\PSoC4/SPIS_SPI.c ****         SPIS_SET_HSIOM_SEL(SPIS_SS3_HSIOM_REG, SPIS_SS3_HSIOM_MASK,
 364:Generated_Source\PSoC4/SPIS_SPI.c ****                                        SPIS_SS3_HSIOM_POS, SPIS_SS3_HSIOM_SEL_GPIO);
 365:Generated_Source\PSoC4/SPIS_SPI.c ****     #endif /* (SPIS_SS3_PIN) */
 366:Generated_Source\PSoC4/SPIS_SPI.c ****     
 367:Generated_Source\PSoC4/SPIS_SPI.c ****         /* Store TX interrupt sources (exclude level triggered) for master. */
 368:Generated_Source\PSoC4/SPIS_SPI.c ****         SPIS_IntrTxMask = LO16(SPIS_GetTxInterruptMode() & SPIS_INTR_SPIM_TX_RESTORE);
 369:Generated_Source\PSoC4/SPIS_SPI.c ****     }
 370:Generated_Source\PSoC4/SPIS_SPI.c ****     else
 371:Generated_Source\PSoC4/SPIS_SPI.c ****     {
 372:Generated_Source\PSoC4/SPIS_SPI.c ****         /* Store TX interrupt sources (exclude level triggered) for slave. */
 373:Generated_Source\PSoC4/SPIS_SPI.c ****         SPIS_IntrTxMask = LO16(SPIS_GetTxInterruptMode() & SPIS_INTR_SPIS_TX_RESTORE);
 374:Generated_Source\PSoC4/SPIS_SPI.c ****     }
 375:Generated_Source\PSoC4/SPIS_SPI.c **** 
 376:Generated_Source\PSoC4/SPIS_SPI.c **** #else
 377:Generated_Source\PSoC4/SPIS_SPI.c **** 
 378:Generated_Source\PSoC4/SPIS_SPI.c **** #if (SPIS_SPI_MASTER_SCLK_PIN)
 379:Generated_Source\PSoC4/SPIS_SPI.c ****     /* Set output pin state after block is disabled */
 380:Generated_Source\PSoC4/SPIS_SPI.c ****     SPIS_sclk_m_Write(SPIS_GET_SPI_SCLK_INACTIVE);
 381:Generated_Source\PSoC4/SPIS_SPI.c **** 
 382:Generated_Source\PSoC4/SPIS_SPI.c ****     /* Set GPIO to drive output pin */
 383:Generated_Source\PSoC4/SPIS_SPI.c ****     SPIS_SET_HSIOM_SEL(SPIS_SCLK_M_HSIOM_REG, SPIS_SCLK_M_HSIOM_MASK,
 384:Generated_Source\PSoC4/SPIS_SPI.c ****                                    SPIS_SCLK_M_HSIOM_POS, SPIS_SCLK_M_HSIOM_SEL_GPIO);
 385:Generated_Source\PSoC4/SPIS_SPI.c **** #endif /* (SPIS_MISO_SDA_TX_PIN_PIN) */
 386:Generated_Source\PSoC4/SPIS_SPI.c **** 
 387:Generated_Source\PSoC4/SPIS_SPI.c **** #if (SPIS_SPI_MASTER_SS0_PIN)
 388:Generated_Source\PSoC4/SPIS_SPI.c ****     /* Set output pin state after block is disabled */
 389:Generated_Source\PSoC4/SPIS_SPI.c ****     SPIS_ss0_m_Write(SPIS_GET_SPI_SS0_INACTIVE);
 390:Generated_Source\PSoC4/SPIS_SPI.c **** 
 391:Generated_Source\PSoC4/SPIS_SPI.c ****     /* Set GPIO to drive output pin */
 392:Generated_Source\PSoC4/SPIS_SPI.c ****     SPIS_SET_HSIOM_SEL(SPIS_SS0_M_HSIOM_REG, SPIS_SS0_M_HSIOM_MASK,
 393:Generated_Source\PSoC4/SPIS_SPI.c ****                                    SPIS_SS0_M_HSIOM_POS, SPIS_SS0_M_HSIOM_SEL_GPIO);
 394:Generated_Source\PSoC4/SPIS_SPI.c **** #endif /* (SPIS_SPI_MASTER_SS0_PIN) */
 395:Generated_Source\PSoC4/SPIS_SPI.c **** 
 396:Generated_Source\PSoC4/SPIS_SPI.c **** #if (SPIS_SPI_MASTER_SS1_PIN)
 397:Generated_Source\PSoC4/SPIS_SPI.c ****     /* Set output pin state after block is disabled */
 398:Generated_Source\PSoC4/SPIS_SPI.c ****     SPIS_ss1_m_Write(SPIS_GET_SPI_SS1_INACTIVE);
 399:Generated_Source\PSoC4/SPIS_SPI.c **** 
 400:Generated_Source\PSoC4/SPIS_SPI.c ****     /* Set GPIO to drive output pin */
 401:Generated_Source\PSoC4/SPIS_SPI.c ****     SPIS_SET_HSIOM_SEL(SPIS_SS1_M_HSIOM_REG, SPIS_SS1_M_HSIOM_MASK,
 402:Generated_Source\PSoC4/SPIS_SPI.c ****                                    SPIS_SS1_M_HSIOM_POS, SPIS_SS1_M_HSIOM_SEL_GPIO);
 403:Generated_Source\PSoC4/SPIS_SPI.c **** #endif /* (SPIS_SPI_MASTER_SS1_PIN) */
 404:Generated_Source\PSoC4/SPIS_SPI.c **** 
 405:Generated_Source\PSoC4/SPIS_SPI.c **** #if (SPIS_SPI_MASTER_SS2_PIN)
 406:Generated_Source\PSoC4/SPIS_SPI.c ****     /* Set output pin state after block is disabled */
 407:Generated_Source\PSoC4/SPIS_SPI.c ****     SPIS_ss2_m_Write(SPIS_GET_SPI_SS2_INACTIVE);
 408:Generated_Source\PSoC4/SPIS_SPI.c **** 
 409:Generated_Source\PSoC4/SPIS_SPI.c ****     /* Set GPIO to drive output pin */
 410:Generated_Source\PSoC4/SPIS_SPI.c ****     SPIS_SET_HSIOM_SEL(SPIS_SS2_M_HSIOM_REG, SPIS_SS2_M_HSIOM_MASK,
 411:Generated_Source\PSoC4/SPIS_SPI.c ****                                    SPIS_SS2_M_HSIOM_POS, SPIS_SS2_M_HSIOM_SEL_GPIO);
 412:Generated_Source\PSoC4/SPIS_SPI.c **** #endif /* (SPIS_SPI_MASTER_SS2_PIN) */
 413:Generated_Source\PSoC4/SPIS_SPI.c **** 
 414:Generated_Source\PSoC4/SPIS_SPI.c **** #if (SPIS_SPI_MASTER_SS3_PIN)
 415:Generated_Source\PSoC4/SPIS_SPI.c ****     /* Set output pin state after block is disabled */
 416:Generated_Source\PSoC4/SPIS_SPI.c ****     SPIS_ss3_m_Write(SPIS_GET_SPI_SS3_INACTIVE);
 417:Generated_Source\PSoC4/SPIS_SPI.c **** 
ARM GAS  C:\Users\Ala\AppData\Local\Temp\cc9JmUv6.s 			page 12


 418:Generated_Source\PSoC4/SPIS_SPI.c ****     /* Set GPIO to drive output pin */
 419:Generated_Source\PSoC4/SPIS_SPI.c ****     SPIS_SET_HSIOM_SEL(SPIS_SS3_M_HSIOM_REG, SPIS_SS3_M_HSIOM_MASK,
 420:Generated_Source\PSoC4/SPIS_SPI.c ****                                    SPIS_SS3_M_HSIOM_POS, SPIS_SS3_M_HSIOM_SEL_GPIO);
 421:Generated_Source\PSoC4/SPIS_SPI.c **** #endif /* (SPIS_SPI_MASTER_SS3_PIN) */
 422:Generated_Source\PSoC4/SPIS_SPI.c **** 
 423:Generated_Source\PSoC4/SPIS_SPI.c ****     #if (SPIS_SPI_MASTER_CONST)
 424:Generated_Source\PSoC4/SPIS_SPI.c ****         /* Store TX interrupt sources (exclude level triggered). */
 425:Generated_Source\PSoC4/SPIS_SPI.c ****         SPIS_IntrTxMask = LO16(SPIS_GetTxInterruptMode() & SPIS_INTR_SPIM_TX_RESTORE);
 426:Generated_Source\PSoC4/SPIS_SPI.c ****     #else
 427:Generated_Source\PSoC4/SPIS_SPI.c ****         /* Store TX interrupt sources (exclude level triggered). */
 428:Generated_Source\PSoC4/SPIS_SPI.c ****         SPIS_IntrTxMask = LO16(SPIS_GetTxInterruptMode() & SPIS_INTR_SPIS_TX_RESTORE);
 211              		.loc 1 428 0
 212 0004 054B     		ldr	r3, .L8
 213 0006 1B68     		ldr	r3, [r3]
 214 0008 9BB2     		uxth	r3, r3
 215 000a 6022     		movs	r2, #96
 216 000c 1340     		ands	r3, r2
 217 000e 9AB2     		uxth	r2, r3
 218 0010 034B     		ldr	r3, .L8+4
 219 0012 1A80     		strh	r2, [r3]
 429:Generated_Source\PSoC4/SPIS_SPI.c ****     #endif /* (SPIS_SPI_MASTER_CONST) */
 430:Generated_Source\PSoC4/SPIS_SPI.c **** 
 431:Generated_Source\PSoC4/SPIS_SPI.c **** #endif /* (SPIS_SCB_MODE_UNCONFIG_CONST_CFG) */
 432:Generated_Source\PSoC4/SPIS_SPI.c **** }
 220              		.loc 1 432 0
 221 0014 C046     		nop
 222 0016 BD46     		mov	sp, r7
 223              		@ sp needed
 224 0018 80BD     		pop	{r7, pc}
 225              	.L9:
 226 001a C046     		.align	2
 227              	.L8:
 228 001c 880F0740 		.word	1074204552
 229 0020 00000000 		.word	SPIS_IntrTxMask
 230              		.cfi_endproc
 231              	.LFE2:
 232              		.size	SPIS_SpiStop, .-SPIS_SpiStop
 233              		.text
 234              	.Letext0:
 235              		.file 2 "Generated_Source\\PSoC4/cytypes.h"
 236              		.file 3 "Generated_Source\\PSoC4\\SPIS_PVT.h"
 237              		.file 4 "Generated_Source\\PSoC4\\SPIS_SPI_UART_PVT.h"